
8aaaf200-2450-11e4-abe2-0002a5d5c51b.elf:     file format elf64-littleaarch64
8aaaf200-2450-11e4-abe2-0002a5d5c51b.elf
architecture: aarch64, flags 0x00000150:
HAS_SYMS, DYNAMIC, D_PAGED
start address 0x0000000000000500

Program Header:
    LOAD off    0x0000000000001000 vaddr 0x0000000000000000 paddr 0x0000000000000000 align 2**12
         filesz 0x00000000000215f0 memsz 0x00000000000215f0 flags r-x
    LOAD off    0x0000000000023000 vaddr 0x0000000000022000 paddr 0x0000000000022000 align 2**12
         filesz 0x0000000000000514 memsz 0x000000000000b5a8 flags rw-
 DYNAMIC off    0x0000000000023000 vaddr 0x0000000000022000 paddr 0x0000000000022000 align 2**3
         filesz 0x0000000000000110 memsz 0x0000000000000110 flags rw-
   STACK off    0x0000000000000000 vaddr 0x0000000000000000 paddr 0x0000000000000000 align 2**4
         filesz 0x0000000000000000 memsz 0x0000000000000000 flags rw-

Dynamic Section:
  HASH                 0x0000000000021308
  GNU_HASH             0x0000000000021218
  STRTAB               0x00000000000212d8
  SYMTAB               0x0000000000021248
  STRSZ                0x000000000000002e
  SYMENT               0x0000000000000018
  DEBUG                0x0000000000000000
  RELA                 0x0000000000021338
  RELASZ               0x0000000000000480
  RELAENT              0x0000000000000018
  FLAGS_1              0x0000000008000000
  RELACOUNT            0x000000000000001d
private flags = 0:

Sections:
Idx Name          Size      VMA               LMA               File off  Algn
  0 .ta_head      00000020  0000000000000000  0000000000000000  00001000  2**3
                  CONTENTS, ALLOC, LOAD, READONLY, DATA
  1 .text         0001cf14  0000000000000020  0000000000000020  00001020  2**2
                  CONTENTS, ALLOC, LOAD, READONLY, CODE
  2 .eh_frame     00002d30  000000000001cf38  000000000001cf38  0001df38  2**3
                  CONTENTS, ALLOC, LOAD, READONLY, DATA
  3 .rodata       000015ae  000000000001fc68  000000000001fc68  00020c68  2**3
                  CONTENTS, ALLOC, LOAD, READONLY, DATA
  4 .gnu.hash     00000030  0000000000021218  0000000000021218  00022218  2**3
                  CONTENTS, ALLOC, LOAD, READONLY, DATA
  5 .dynsym       00000090  0000000000021248  0000000000021248  00022248  2**3
                  CONTENTS, ALLOC, LOAD, READONLY, DATA
  6 .dynstr       0000002e  00000000000212d8  00000000000212d8  000222d8  2**0
                  CONTENTS, ALLOC, LOAD, READONLY, DATA
  7 .hash         0000002c  0000000000021308  0000000000021308  00022308  2**3
                  CONTENTS, ALLOC, LOAD, READONLY, DATA
  8 .rela.dyn     000002b8  0000000000021338  0000000000021338  00022338  2**3
                  CONTENTS, ALLOC, LOAD, READONLY, DATA
  9 .dynamic      00000110  0000000000022000  0000000000022000  00023000  2**3
                  CONTENTS, ALLOC, LOAD, DATA
 10 .got          000000b8  0000000000022110  0000000000022110  00023110  2**3
                  CONTENTS, ALLOC, LOAD, DATA
 11 .rela.got     000001c8  00000000000221c8  00000000000221c8  000231c8  2**3
                  CONTENTS, ALLOC, LOAD, READONLY, DATA
 12 .data         00000184  0000000000022390  0000000000022390  00023390  2**3
                  CONTENTS, ALLOC, LOAD, DATA
 13 .bss          0000b090  0000000000022518  0000000000022518  00023514  2**3
                  ALLOC
 14 .debug_info   0000f817  0000000000000000  0000000000000000  00023514  2**0
                  CONTENTS, READONLY, DEBUGGING, OCTETS
 15 .debug_abbrev 00003031  0000000000000000  0000000000000000  00032d2b  2**0
                  CONTENTS, READONLY, DEBUGGING, OCTETS
 16 .debug_aranges 000009b0  0000000000000000  0000000000000000  00035d60  2**4
                  CONTENTS, READONLY, DEBUGGING, OCTETS
 17 .debug_macro  00018c47  0000000000000000  0000000000000000  00036710  2**0
                  CONTENTS, READONLY, DEBUGGING, OCTETS
 18 .debug_line   0000af99  0000000000000000  0000000000000000  0004f357  2**0
                  CONTENTS, READONLY, DEBUGGING, OCTETS
 19 .debug_str    00019ebd  0000000000000000  0000000000000000  0005a2f0  2**0
                  CONTENTS, READONLY, DEBUGGING, OCTETS
 20 .comment      0000002b  0000000000000000  0000000000000000  000741ad  2**0
                  CONTENTS, READONLY
 21 .debug_ranges 00000410  0000000000000000  0000000000000000  000741e0  2**4
                  CONTENTS, READONLY, DEBUGGING, OCTETS
SYMBOL TABLE:
0000000000000000 l    d  .ta_head	0000000000000000 .ta_head
0000000000000020 l    d  .text	0000000000000000 .text
000000000001cf38 l    d  .eh_frame	0000000000000000 .eh_frame
000000000001fc68 l    d  .rodata	0000000000000000 .rodata
0000000000021218 l    d  .gnu.hash	0000000000000000 .gnu.hash
0000000000021248 l    d  .dynsym	0000000000000000 .dynsym
00000000000212d8 l    d  .dynstr	0000000000000000 .dynstr
0000000000021308 l    d  .hash	0000000000000000 .hash
0000000000021338 l    d  .rela.dyn	0000000000000000 .rela.dyn
0000000000022000 l    d  .dynamic	0000000000000000 .dynamic
0000000000022110 l    d  .got	0000000000000000 .got
00000000000221c8 l    d  .rela.got	0000000000000000 .rela.got
0000000000022390 l    d  .data	0000000000000000 .data
0000000000022518 l    d  .bss	0000000000000000 .bss
0000000000000000 l    d  .debug_info	0000000000000000 .debug_info
0000000000000000 l    d  .debug_abbrev	0000000000000000 .debug_abbrev
0000000000000000 l    d  .debug_aranges	0000000000000000 .debug_aranges
0000000000000000 l    d  .debug_macro	0000000000000000 .debug_macro
0000000000000000 l    d  .debug_line	0000000000000000 .debug_line
0000000000000000 l    d  .debug_str	0000000000000000 .debug_str
0000000000000000 l    d  .comment	0000000000000000 .comment
0000000000000000 l    d  .debug_ranges	0000000000000000 .debug_ranges
0000000000000000 l    df *ABS*	0000000000000000 user_ta_header.c
000000000001fd28 l     O .rodata	0000000000000001 __compound_literal.0
000000000001fd29 l     O .rodata	0000000000000001 __compound_literal.1
000000000001fd2a l     O .rodata	0000000000000001 __compound_literal.2
000000000001fd2c l     O .rodata	0000000000000004 __compound_literal.3
000000000001fd30 l     O .rodata	0000000000000004 __compound_literal.4
000000000001fd34 l     O .rodata	0000000000000004 __compound_literal.5
0000000000000000 l    df *ABS*	0000000000000000 hello_world_ta.c
000000000001fc98 l     O .rodata	0000000000000014 __func__.4285
000000000001fcb0 l     O .rodata	0000000000000015 __func__.4289
000000000001fcc8 l     O .rodata	0000000000000019 __func__.4296
000000000001fce8 l     O .rodata	000000000000001a __func__.4300
0000000000000304 l     F .text	0000000000000134 inc_value
0000000000000438 l     F .text	0000000000000068 dec_value
000000000001fd08 l     O .rodata	000000000000000a __func__.4331
0000000000000000 l    df *ABS*	0000000000000000 stack_check.c
0000000000000000 l    df *ABS*	0000000000000000 trace.c
00000000000005a8 l     F .text	0000000000000064 trace_level_to_string
000000000001fec0 l     O .rodata	0000000000000005 lvl_strs.3643
000000000000060c l     F .text	0000000000000074 print_thread_id
0000000000000680 l     F .text	0000000000000018 print_core_id
0000000000000000 l    df *ABS*	0000000000000000 snprintk.c
000000000001fec8 l     O .rodata	0000000000000011 hexdigits
000000000001fee0 l     O .rodata	0000000000000011 HEXDIGITS
0000000000000ee0 l     F .text	0000000000001c64 kprintf
0000000000000dfc l     F .text	00000000000000e4 uuid2str
0000000000000000 l    df *ABS*	0000000000000000 memchr.c
0000000000000000 l    df *ABS*	0000000000000000 strlen.c
0000000000000000 l    df *ABS*	0000000000000000 trace_ext.c
0000000000000000 l    df *ABS*	0000000000000000 tee_api_objects.c
0000000000000000 l    df *ABS*	0000000000000000 tee_api_operations.c
0000000000004b28 l     F .text	0000000000000088 __tee_alg_get_class
0000000000004bb0 l     F .text	00000000000000b8 __tee_alg_get_main_alg
0000000000004c68 l     F .text	000000000000004c __tee_alg_get_key_type
0000000000004cb4 l     F .text	0000000000000420 __tee_alg_get_digest_size
000000000000700c l     F .text	0000000000000070 init_hash_operation
00000000000073c0 l     F .text	0000000000000538 tee_buffer_update
0000000000000000 l    df *ABS*	0000000000000000 tee_api_panic.c
000000000000a734 l     F .text	0000000000000030 check_res
000000000000a764 l     F .text	0000000000000058 check_access
0000000000000000 l    df *ABS*	0000000000000000 utee_syscalls_a64.o
0000000000000000 l    df *ABS*	0000000000000000 user_ta_entry.c
000000000000ac44 l     F .text	0000000000000014 memtag_init_ops
000000000000ac58 l     F .text	0000000000000008 __utee_gprof_init
000000000000ac60 l     F .text	0000000000000008 __utee_gprof_fini
0000000000022470 l     O .data	0000000000000010 ta_sessions
000000000002a518 l     O .bss	0000000000000001 init_done
0000000000022480 l     O .data	0000000000000010 __phdr_info_head
000000000002a520 l     O .bss	0000000000000008 _num_mod_init
000000000000ac68 l     F .text	00000000000000e0 _init_iterate_phdr_cb
0000000000020190 l     O .rodata	0000000000000016 __func__.5066
000000000000ad48 l     F .text	000000000000019c _get_fn_array
000000000000b0e0 l     F .text	00000000000000d0 _fini_iterate_phdr_cb
000000000000b1d4 l     F .text	0000000000000084 get_memtag_implementation
000000000000b258 l     F .text	0000000000000050 init_instance
000000000000b2a8 l     F .text	0000000000000020 uninit_instance
000000000000b2c8 l     F .text	0000000000000064 ta_header_save_params
000000000000b32c l     F .text	000000000000005c ta_header_get_session
000000000000b388 l     F .text	00000000000000fc ta_header_add_session
000000000000b484 l     F .text	0000000000000130 ta_header_remove_session
000000000000b5b4 l     F .text	0000000000000190 to_utee_params
000000000000b744 l     F .text	0000000000000140 from_utee_params
000000000000b884 l     F .text	0000000000000104 entry_open_session
000000000000b988 l     F .text	000000000000004c entry_close_session
000000000000b9d4 l     F .text	00000000000000dc entry_invoke_command
0000000000000000 l    df *ABS*	0000000000000000 abort.c
0000000000000000 l    df *ABS*	0000000000000000 tee_api.c
000000000002a580 l     O .bss	0000000000000008 tee_api_instance_data
000000000000bb84 l     F .text	0000000000000400 copy_param
000000000000bf84 l     F .text	00000000000001a0 update_out_param
00000000000201c8 l     O .rodata	000000000000000b __func__.4934
0000000000000000 l    df *ABS*	0000000000000000 tee_api_arith_mpi.c
000000000000ca98 l     F .text	000000000000003c api_panic
000000000000cad4 l     F .text	000000000000003c mpi_panic
000000000002a588 l     O .bss	0000000000003000 data.4902
00000000000202a8 l     O .rodata	0000000000000012 __func__.4903
000000000000cb74 l     F .text	00000000000000dc copy_mpi_to_bigint
000000000000cc50 l     F .text	00000000000000fc get_mpi
00000000000202c0 l     O .rodata	0000000000000008 __func__.4936
00000000000202c8 l     O .rodata	000000000000000f __func__.4942
00000000000202d8 l     O .rodata	000000000000001f __func__.4960
00000000000202f8 l     O .rodata	0000000000000019 __func__.4967
0000000000020318 l     O .rodata	0000000000000015 __func__.4998
000000000000d5b4 l     F .text	0000000000000180 bigint_binary
0000000000020330 l     O .rodata	000000000000000e __func__.5033
000000000000d734 l     F .text	000000000000020c bigint_binary_mod
0000000000020340 l     O .rodata	0000000000000012 __func__.5052
0000000000020358 l     O .rodata	000000000000000e __func__.5073
0000000000020368 l     O .rodata	000000000000000e __func__.5102
0000000000020378 l     O .rodata	000000000000000e __func__.5110
0000000000020388 l     O .rodata	0000000000000011 __func__.5143
00000000000203a0 l     O .rodata	0000000000000018 __func__.5156
000000000000e200 l     F .text	000000000000002c mpi_is_odd
000000000000e22c l     F .text	000000000000003c mpi_is_even
000000000000e268 l     F .text	0000000000000824 mpi_egcd
00000000000203b8 l     O .rodata	0000000000000009 __func__.5179
00000000000203c8 l     O .rodata	000000000000001d __func__.5236
000000000000edbc l     F .text	000000000000003c rng_read
00000000000203e8 l     O .rodata	0000000000000019 __func__.5289
0000000000020408 l     O .rodata	0000000000000015 __func__.5304
0000000000000000 l    df *ABS*	0000000000000000 tee_api_property.c
0000000000020420 l     O .rodata	0000000000000004 __compound_literal.0
0000000000020424 l     O .rodata	0000000000000004 __compound_literal.1
0000000000020428 l     O .rodata	0000000000000004 __compound_literal.2
000000000000f178 l     F .text	00000000000000b0 propset_get
000000000000f228 l     F .text	0000000000000238 propget_get_ext_prop
000000000000f460 l     F .text	0000000000000054 is_propset_pseudo_handle
000000000000f4b4 l     F .text	00000000000002ac propget_get_property
0000000000000000 l    df *ABS*	0000000000000000 tee_system_pta.c
0000000000010488 l     F .text	0000000000000024 reg_pair_to_64
00000000000104ac l     F .text	0000000000000040 reg_pair_from_64
00000000000104ec l     F .text	0000000000000090 invoke_system_pta
000000000002d588 l     O .bss	0000000000000008 sess.4314
0000000000020510 l     O .rodata	0000000000000010 uuid.4315
0000000000020520 l     O .rodata	000000000000000a __func__.4335
0000000000020530 l     O .rodata	0000000000000017 __func__.4347
0000000000000000 l    df *ABS*	0000000000000000 tcb.c
00000000000108f0 l     F .text	0000000000000024 write_tpidr_el0
000000000002d590 l     O .bss	0000000000000008 _tcb
000000000002d598 l     O .bss	0000000000000008 _tls_size
00000000000205f0 l     O .rodata	0000000000000010 __func__.4089
0000000000020600 l     O .rodata	0000000000000010 __func__.4116
0000000000000000 l    df *ABS*	0000000000000000 assert.c
0000000000000000 l    df *ABS*	0000000000000000 base64.c
0000000000020638 l     O .rodata	0000000000000041 base64_table
00000000000111d8 l     F .text	0000000000000084 get_idx
0000000000000000 l    df *ABS*	0000000000000000 bignum.c
0000000000011578 l     F .text	0000000000000030 mbedtls_mpi_zeroize
00000000000115a8 l     F .text	0000000000000040 mpi_init
0000000000011a68 l     F .text	0000000000000090 mbedtls_mpi_resize_clear
0000000000011fec l     F .text	0000000000000064 mbedtls_clz
0000000000012130 l     F .text	00000000000000c8 mpi_get_digit
000000000001254c l     F .text	0000000000000190 mpi_write_hlp
0000000000012a0c l     F .text	0000000000000070 mpi_uint_bigendian_to_host_c
0000000000012a7c l     F .text	000000000000001c mpi_uint_bigendian_to_host
0000000000012a98 l     F .text	00000000000000ac mpi_bigendian_to_host
0000000000013b38 l     F .text	00000000000000f4 mpi_sub_hlp
0000000000014218 l     F .text	000000000000139c mpi_mul_hlp
0000000000015998 l     F .text	00000000000000d0 mbedtls_int_div_int
000000000001662c l     F .text	00000000000000a0 mpi_montg_init
00000000000166f4 l     F .text	000000000000021c mpi_montmul
0000000000016950 l     F .text	000000000000009c mpi_montred
0000000000016a24 l     F .text	00000000000000b0 mpi_select
0000000000017844 l     F .text	000000000000011c mpi_fill_random_internal
0000000000020698 l     O .rodata	00000000000002a0 small_prime
0000000000018288 l     F .text	000000000000011c mpi_check_small_factors
00000000000183a4 l     F .text	0000000000000390 mpi_miller_rabin
0000000000020938 l     O .rodata	0000000000000024 gcd_pairs
0000000000000000 l    df *ABS*	0000000000000000 constant_time.c
0000000000019490 l     F .text	0000000000000060 mbedtls_ct_uchar_mask_of_range
000000000001953c l     F .text	0000000000000024 mbedtls_ct_size_gt
0000000000019610 l     F .text	0000000000000068 mbedtls_ct_cond_select_sign
000000000001998c l     F .text	000000000000013c mbedtls_ct_mem_move_to_left
0000000000000000 l    df *ABS*	0000000000000000 platform_util.c
00000000000224d8 l     O .data	0000000000000008 memset_func
0000000000000000 l    df *ABS*	0000000000000000 bget_malloc.c
000000000001a3c0 l     F .text	000000000000002c memset_unchecked
000000000001a3ec l     F .text	000000000000002c memcpy_unchecked
000000000001a418 l     F .text	00000000000000cc buf_get_pos
00000000000210e8 l     O .rodata	0000000000000005 __func__.3921
00000000000210f0 l     O .rodata	0000000000000006 __func__.3941
00000000000210f8 l     O .rodata	0000000000000006 __func__.3952
0000000000021100 l     O .rodata	0000000000000005 __func__.3960
0000000000021108 l     O .rodata	0000000000000006 __func__.3969
000000000001b1c8 l     F .text	0000000000000014 malloc_lock
000000000001b1dc l     F .text	0000000000000018 malloc_unlock
00000000000224e0 l     O .data	0000000000000030 malloc_ctx
000000000001b1f4 l     F .text	0000000000000018 print_oom
000000000001b20c l     F .text	0000000000000070 bget_buf_size
0000000000021110 l     O .rodata	000000000000000e __func__.3993
000000000001b27c l     F .text	0000000000000030 maybe_tag_buf
000000000001b2ac l     F .text	0000000000000028 maybe_untag_buf
000000000001b2d4 l     F .text	0000000000000014 strip_tag
000000000001b2e8 l     F .text	0000000000000018 tag_asan_free
000000000001b300 l     F .text	0000000000000064 raw_malloc_return_hook
000000000001b364 l     F .text	0000000000000014 raw_malloc_validate_pools
000000000001b378 l     F .text	0000000000000034 bpool_foreach_iterator_init
000000000001b3ac l     F .text	0000000000000130 bpool_foreach_pool
0000000000021120 l     O .rodata	0000000000000013 __func__.4041
000000000001b4dc l     F .text	00000000000000fc bpool_foreach
000000000001bb58 l     F .text	0000000000000050 free_helper
000000000001bc04 l     F .text	0000000000000034 realloc_unlocked
000000000001bce8 l     F .text	0000000000000030 get_payload_start_size
000000000001bd60 l     F .text	00000000000001cc gen_malloc_add_pool
0000000000021138 l     O .rodata	0000000000000014 __func__.4148
000000000001bf2c l     F .text	0000000000000138 gen_malloc_buffer_is_within_alloced
000000000001c064 l     F .text	0000000000000120 gen_malloc_buffer_overlaps_heap
0000000000000000 l    df *ABS*	0000000000000000 snprintf.c
0000000000000000 l    df *ABS*	0000000000000000 memcpy.c
0000000000000000 l    df *ABS*	0000000000000000 memmove.c
0000000000000000 l    df *ABS*	0000000000000000 memset.c
0000000000000000 l    df *ABS*	0000000000000000 strcmp.c
0000000000000000 l    df *ABS*	0000000000000000 strlcpy.c
0000000000000000 l    df *ABS*	0000000000000000 mempool.c
000000000001cb08 l     F .text	00000000000000d0 init_mpool
00000000000211e0 l     O .rodata	000000000000000b __func__.3708
000000000001cbd8 l     F .text	0000000000000014 get_pool
000000000001cbec l     F .text	0000000000000014 put_pool
00000000000211f0 l     O .rodata	0000000000000013 __func__.3727
0000000000021208 l     O .rodata	000000000000000e __func__.3733
0000000000000000 l    df *ABS*	0000000000000000 consttime_memcmp.c
0000000000000000 l    df *ABS*	0000000000000000 
0000000000022000 l     O *ABS*	0000000000000000 _DYNAMIC
0000000000022128 l     O *ABS*	0000000000000000 _GLOBAL_OFFSET_TABLE_
0000000000002f68 g     F .text	000000000000007c putchar
0000000000003920 g     F .text	0000000000000270 TEE_PopulateTransientObject
000000000000ef0c g     F .text	0000000000000034 TEE_BigIntConvertToFMM
000000000000df4c g     F .text	0000000000000034 TEE_BigIntSquareMod
000000000000d2a0 g     F .text	000000000000021c TEE_BigIntShiftRight
000000000001c1cc g     F .text	0000000000000030 raw_malloc_add_pool
0000000000010784 g     F .text	000000000000016c tee_invoke_supp_plugin
00000000000116fc g     F .text	0000000000000174 mbedtls_mpi_grow
000000000000707c g     F .text	000000000000008c TEE_DigestUpdate
000000000000c990 g     F .text	0000000000000064 TEE_Realloc
0000000000006a78 g     F .text	0000000000000374 TEE_SetOperationKey2
000000000000a95c g     F .text	000000000000003c __utee_check_inout_annotation
000000000001b740 g     F .text	0000000000000058 raw_free
0000000000002e04 g     F .text	000000000000012c printf
0000000000003b90 g     F .text	000000000000006c TEE_InitRefAttribute
000000000000a9b0 g     F .text	000000000000000c _utee_log
000000000000c2e8 g     F .text	00000000000001c0 TEE_InvokeTACommand
000000000000a7bc g     F .text	0000000000000068 __utee_check_outbuf_annotation
000000000001160c g     F .text	0000000000000040 mbedtls_mpi_init_mempool
000000000000ab30 g     F .text	000000000000000c _utee_cryp_random_number_generate
0000000000012e54 g     F .text	0000000000000160 mbedtls_mpi_write_binary
00000000000088fc g     F .text	0000000000000344 TEE_AEEncryptFinal
0000000000000c20 g     F .text	0000000000000064 vsnprintk
0000000000014170 g     F .text	00000000000000a8 mbedtls_mpi_sub_int
000000000001c568 g     F .text	000000000000020c memmove
000000000001c28c g     F .text	00000000000000f8 snprintf
000000000000d224 g     F .text	000000000000007c TEE_BigIntCmpS32
0000000000022468 g     O .data	0000000000000008 __stack_chk_guard
0000000000019fa8 g     F .text	00000000000003d4 mbedtls_ct_rsaes_pkcs1_v15_unpadding
0000000000003bfc g     F .text	000000000000006c TEE_InitValueAttribute
0000000000011870 g     F .text	00000000000001f8 mbedtls_mpi_shrink
000000000000d940 g     F .text	0000000000000038 TEE_BigIntAdd
000000000000aad0 g     F .text	000000000000000c _utee_cryp_obj_restrict_usage
000000000001fd20 g     O .rodata	0000000000000008 ta_heap_size
0000000000003868 g     F .text	00000000000000b8 TEE_ResetTransientObject
000000000000ab78 g     F .text	000000000000000c _utee_asymm_operate
0000000000010f38 g     F .text	0000000000000030 _base64_enc_len
00000000000121f8 g     F .text	0000000000000354 mbedtls_mpi_read_string
0000000000007254 g     F .text	000000000000016c TEE_CipherInit
000000000000d9b0 g     F .text	0000000000000100 TEE_BigIntNeg
000000000000abcc g     F .text	000000000000000c _utee_storage_free_enum
0000000000000020 g       .text	0000000000000000 __text_start
0000000000010338 g     F .text	0000000000000150 TEE_GetNextProperty
0000000000004584 g     F .text	0000000000000078 TEE_StartPersistentObjectEnumerator
000000000001320c g     F .text	0000000000000220 mbedtls_mpi_shift_r
000000000001c25c g     F .text	0000000000000030 malloc_buffer_overlaps_heap
000000000000aa7c g     F .text	000000000000000c _utee_hash_init
000000000000decc g     F .text	0000000000000040 TEE_BigIntSubMod
000000000001887c g     F .text	00000000000004e0 mbedtls_mpi_gen_prime
000000000000fd30 g     F .text	0000000000000108 TEE_GetPropertyAsBinaryBlock
0000000000011db0 g     F .text	0000000000000060 mbedtls_mpi_get_bit
0000000000012c34 g     F .text	00000000000000d0 mbedtls_mpi_read_binary
000000000000845c g     F .text	000000000000017c TEE_AEInit
0000000000000698 g     F .text	00000000000000f0 trace_printf
0000000000016910 g     F .text	0000000000000040 mbedtls_mpi_montmul
000000000000ac38 g     F .text	000000000000000c _utee_cache_operation
000000000001c3e8 g     F .text	0000000000000180 memcpy
000000000000ef40 g     F .text	00000000000000e0 TEE_BigIntConvertFromFMM
000000000000a714 g     F .text	0000000000000020 TEE_Panic
0000000000006dec g     F .text	0000000000000220 TEE_CopyOperation
0000000000002f30 g     F .text	0000000000000038 puts
000000000000f020 g     F .text	0000000000000158 TEE_BigIntComputeFMM
000000000000c8c4 g     F .text	000000000000003c TEE_GetREETime
0000000000004440 g     F .text	00000000000000b4 TEE_AllocatePersistentObjectEnumerator
0000000000022390 g     O .data	00000000000000d8 ta_props
0000000000008f38 g     F .text	0000000000000314 TEE_AsymmetricEncrypt
000000000000a824 g     F .text	0000000000000044 __utee_check_instring_annotation
000000000001bb04 g     F .text	0000000000000054 malloc
00000000000100ec g     F .text	0000000000000028 TEE_FreePropertyEnumerator
000000000001946c g     F .text	0000000000000024 mbedtls_ct_mpi_uint_mask
0000000000003e38 g     F .text	0000000000000224 TEE_GenerateKey
000000000001c384 g     F .text	0000000000000064 vsnprintf
0000000000022510 g     O .data	0000000000000004 trace_level
000000000000d194 g     F .text	0000000000000090 TEE_BigIntCmp
000000000001fe88 g     O .rodata	0000000000000008 ta_num_props
000000000001ab24 g     F .text	000000000000013c bgetr
000000000000ab90 g     F .text	000000000000000c _utee_storage_obj_open
000000000001ce00 g     F .text	000000000000003c mempool_free
00000000000078f8 g     F .text	00000000000002ac TEE_CipherUpdate
000000000000aa88 g     F .text	000000000000000c _utee_hash_update
000000000000cea8 g     F .text	00000000000000e4 TEE_BigIntConvertToOctetString
00000000000064c0 g     F .text	00000000000002dc TEE_GetOperationInfoMultiple
0000000000012050 g     F .text	00000000000000bc mbedtls_mpi_bitlen
000000000000d4bc g     F .text	0000000000000084 TEE_BigIntGetBit
000000000001fd18 g     O .rodata	0000000000000003 trace_ext_prefix
000000000000abf0 g     F .text	000000000000000c _utee_storage_next_enum
000000000001b708 g     F .text	0000000000000038 raw_malloc
000000000001aa2c g     F .text	00000000000000f8 bgetz
00000000000194f0 g     F .text	000000000000004c mbedtls_ct_size_bool_eq
000000000000c6a0 g     F .text	0000000000000010 TEE_GetInstanceData
000000000000c780 g     F .text	0000000000000048 TEE_Wait
00000000000155b4 g     F .text	00000000000002d4 mbedtls_mpi_mul_mpi
000000000000ca48 g     F .text	0000000000000028 TEE_CacheFlush
0000000000000788 g     F .text	0000000000000380 trace_vprintf
0000000000000054 g     F .text	0000000000000034 TA_DestroyEntryPoint
00000000000115e8 g     F .text	0000000000000024 mbedtls_mpi_init
000000000000aba8 g     F .text	000000000000000c _utee_storage_obj_del
0000000000011f4c g     F .text	00000000000000a0 mbedtls_mpi_lsb
0000000000010ec8 g     F .text	000000000000005c _assert_log
000000000000aa64 g     F .text	000000000000000c _utee_cryp_state_copy
000000000000eef8 g     F .text	0000000000000014 TEE_BigIntFMMContextSizeInU32
0000000000010688 g     F .text	00000000000000fc tee_unmap
00000000000082c8 g     F .text	0000000000000194 TEE_MACCompareFinal
00000000000195c8 g     F .text	0000000000000048 mbedtls_ct_uint_if
00000000000043a4 g     F .text	000000000000009c TEE_RenamePersistentObject
0000000000007108 g     F .text	000000000000014c TEE_DigestDoFinal
000000000000cb10 g     F .text	0000000000000064 _TEE_MathAPI_Init
0000000000010914 g     F .text	0000000000000448 __utee_tcb_init
0000000000013e90 g     F .text	000000000000011c mbedtls_mpi_add_mpi
000000000000bb64 g     F .text	0000000000000020 abort
0000000000017a04 g     F .text	0000000000000260 mbedtls_mpi_random
000000000000013c g     F .text	00000000000001c8 verify_signature_with_public_key
0000000000000540 g     F .text	0000000000000004 __stack_chk_fail
000000000000a8d0 g     F .text	000000000000003c __utee_check_out_annotation
0000000000022518 g     O .bss	0000000000008000 ta_heap
000000000000df80 g     F .text	000000000000016c TEE_BigIntInvMod
000000000000aee4 g     F .text	00000000000001fc __utee_call_elf_init_fn
0000000000000104 g     F .text	0000000000000038 TA_CloseSessionEntryPoint
000000000000a9ec g     F .text	000000000000000c _utee_close_ta_session
000000000000924c g     F .text	0000000000000314 TEE_AsymmetricDecrypt
000000000000405c g     F .text	0000000000000138 TEE_OpenPersistentObject
0000000000013fac g     F .text	000000000000011c mbedtls_mpi_sub_mpi
000000000001ce3c g     F .text	00000000000000f8 consttime_memcmp
000000000000a9a4 g     F .text	000000000000000c _utee_return
000000000000a9bc g     F .text	000000000000000c __utee_panic
00000000000193a4 g     F .text	00000000000000a4 mbedtls_ct_memcmp
0000000000010d5c g     F .text	0000000000000040 __tls_get_addr
00000000000004a0 g     F .text	0000000000000060 TA_InvokeCommandEntryPoint
000000000000b1b0 g     F .text	0000000000000024 __utee_call_elf_fini_fn
000000000001bd3c g     F .text	0000000000000024 free_wipe
000000000001cc94 g     F .text	0000000000000088 mempool_alloc
000000000000a998 g     F .text	000000000000000c _utee_panic
000000000001c18c g     F .text	0000000000000040 raw_malloc_init_ctx
000000000001cd1c g     F .text	00000000000000e4 mempool_calloc
000000000000ac2c g     F .text	000000000000000c _utee_cryp_obj_generate_key
000000000000ac14 g     F .text	000000000000000c _utee_storage_obj_trunc
0000000000003c68 g     F .text	000000000000009c TEE_CopyObjectAttributes
0000000000022490 g     O .data	0000000000000048 tee_props
000000000000aa1c g     F .text	000000000000000c _utee_unmask_cancellation
00000000000100c4 g     F .text	0000000000000028 TEE_ResetPropertyEnumerator
000000000001bba8 g     F .text	000000000000005c calloc
000000000000c900 g     F .text	0000000000000090 TEE_Malloc
000000000000c618 g     F .text	0000000000000064 TEE_CheckMemoryAccessRights
000000000000fe38 g     F .text	0000000000000100 TEE_GetPropertyAsUUID
000000000000a9c8 g     F .text	000000000000000c _utee_get_property
0000000000011d0c g     F .text	00000000000000a4 mbedtls_mpi_lset
0000000000004740 g     F .text	0000000000000100 TEE_ReadObjectData
00000000000033c8 g     F .text	0000000000000144 TEE_GetObjectBufferAttribute
0000000000000088 g     F .text	000000000000007c TA_OpenSessionEntryPoint
00000000000063d8 g     F .text	0000000000000068 TEE_FreeOperation
0000000000010d9c g     F .text	000000000000012c dl_iterate_phdr
000000000002d5a8 g       .bss	0000000000000000 __ftrace_buf_end
000000000002a528 g     O .bss	0000000000000004 ta_param_types
00000000000162e0 g     F .text	00000000000000b0 mbedtls_mpi_div_int
0000000000002fe4 g     F .text	00000000000001f0 __utee_from_attr
0000000000018734 g     F .text	0000000000000118 mbedtls_mpi_is_prime_ext
000000000000edf8 g     F .text	000000000000009c TEE_BigIntIsProbablePrime
0000000000015888 g     F .text	0000000000000110 mbedtls_mpi_mul_int
0000000000004344 g     F .text	0000000000000060 TEE_CloseAndDeletePersistentObject1
0000000000016ad4 g     F .text	0000000000000ad8 mbedtls_mpi_exp_mod
0000000000019ac8 g     F .text	000000000000011c mbedtls_mpi_safe_cond_assign
000000000000f760 g     F .text	00000000000003c8 TEE_GetPropertyAsString
0000000000019dcc g     F .text	00000000000001dc mbedtls_mpi_lt_mpi_ct
0000000000008c40 g     F .text	00000000000002f8 TEE_AEDecryptFinal
000000000000cd4c g     F .text	000000000000008c TEE_BigIntInit
000000000000a868 g     F .text	0000000000000068 __utee_check_outstring_annotation
000000000000c6b0 g     F .text	0000000000000030 TEE_MemMove
000000000001a37c g     F .text	0000000000000044 mbedtls_platform_zeroize
000000000000cdd8 g     F .text	00000000000000d0 TEE_BigIntConvertFromOctetString
000000000000ab6c g     F .text	000000000000000c _utee_authenc_dec_final
000000000001342c g     F .text	00000000000001b8 mbedtls_mpi_cmp_abs
000000000000abfc g     F .text	000000000000000c _utee_storage_obj_read
0000000000007fb8 g     F .text	00000000000000ac TEE_MACInit
0000000000009560 g     F .text	0000000000000304 TEE_AsymmetricSignDigest
0000000000002b44 g     F .text	00000000000001b8 memchr
000000000000c520 g     F .text	000000000000007c TEE_UnmaskCancellation
00000000000031d4 g     F .text	0000000000000088 TEE_GetObjectInfo
0000000000018d5c g     F .text	0000000000000648 mbedtls_mpi_self_test
000000000000ac20 g     F .text	000000000000000c _utee_storage_obj_seek
0000000000008698 g     F .text	0000000000000264 TEE_AEUpdate
00000000000037b0 g     F .text	00000000000000b8 TEE_FreeTransientObject
000000000000aa10 g     F .text	000000000000000c _utee_check_access_rights
0000000000013804 g     F .text	00000000000000a0 mbedtls_mpi_cmp_int
000000000001125c g     F .text	000000000000031c _base64_dec
000000000000abd8 g     F .text	000000000000000c _utee_storage_reset_enum
000000000001984c g     F .text	0000000000000140 mbedtls_ct_base64_dec_value
0000000000009e9c g     F .text	0000000000000060 rand
000000000000a90c g     F .text	0000000000000050 __utee_check_attr_in_annotation
000000000000ab54 g     F .text	000000000000000c _utee_authenc_update_payload
0000000000006440 g     F .text	0000000000000080 TEE_GetOperationInfo
000000000000de28 g     F .text	0000000000000064 TEE_BigIntMod
0000000000016480 g     F .text	00000000000001ac mbedtls_mpi_mod_int
0000000000012b44 g     F .text	00000000000000f0 mbedtls_mpi_read_binary_le
000000000000dc14 g     F .text	0000000000000214 TEE_BigIntDiv
000000000000aae8 g     F .text	000000000000000c _utee_cryp_obj_alloc
000000000002d5a8 g       .bss	0000000000000000 __ftrace_buf_start
000000000001ca54 g     F .text	00000000000000b4 strlcpy
0000000000019720 g     F .text	000000000000012c mbedtls_ct_base64_enc_char
0000000000011af8 g     F .text	0000000000000190 mbedtls_mpi_copy
0000000000009efc g     F .text	0000000000000818 TEE_IsAlgorithmSupported
000000000000ff38 g     F .text	0000000000000100 TEE_GetPropertyAsIdentity
0000000000000d98 g     F .text	0000000000000064 __vsprintf
000000000000aa4c g     F .text	000000000000000c _utee_set_ta_time
000000000000a9f8 g     F .text	000000000000000c _utee_invoke_ta_command
0000000000003360 g     F .text	0000000000000068 TEE_RestrictObjectUsage1
000000000001bc38 g     F .text	0000000000000054 realloc
0000000000011c88 g     F .text	0000000000000084 mbedtls_mpi_swap
000000000001cc00 g     F .text	0000000000000094 mempool_alloc_pool
000000000000dab0 g     F .text	0000000000000138 TEE_BigIntMul
000000000000679c g     F .text	00000000000000bc TEE_ResetOperation
000000000001c184 g     F .text	0000000000000008 raw_malloc_get_ctx_size
0000000000012fb4 g     F .text	0000000000000258 mbedtls_mpi_shift_l
00000000000135e4 g     F .text	0000000000000220 mbedtls_mpi_cmp_mpi
000000000000c710 g     F .text	0000000000000034 TEE_MemFill
000000000001c1fc g     F .text	0000000000000030 malloc_add_pool
0000000000008064 g     F .text	00000000000000cc TEE_MACUpdate
0000000000000598 g     F .text	0000000000000010 trace_get_level
00000000000138a4 g     F .text	0000000000000294 mbedtls_mpi_add_abs
00000000000032c4 g     F .text	000000000000009c TEE_RestrictObjectUsage
000000000000eed8 g     F .text	0000000000000020 TEE_BigIntFMMSizeInU32
000000000000fb28 g     F .text	0000000000000108 TEE_GetPropertyAsBool
000000000001b910 g     F .text	00000000000001f4 raw_realloc
000000000000ee94 g     F .text	0000000000000028 TEE_BigIntInitFMM
0000000000003698 g     F .text	0000000000000048 TEE_CloseObject
000000000000aaa0 g     F .text	000000000000000c _utee_cipher_init
000000000000bab0 g     F .text	00000000000000b4 __utee_entry
000000000000fc30 g     F .text	0000000000000100 TEE_GetPropertyAsU32
000000000001cf34 g       .text	0000000000000000 __text_end
000000000000e0ec g     F .text	0000000000000114 TEE_BigIntRelativePrime
0000000000016390 g     F .text	00000000000000f0 mbedtls_mpi_mod_mpi
000000000000aac4 g     F .text	000000000000000c _utee_cryp_obj_get_info
000000000001b068 g     F .text	0000000000000160 bpool
0000000000010038 g     F .text	000000000000008c TEE_AllocatePropertyEnumerator
000000000000aa58 g     F .text	000000000000000c _utee_cryp_state_alloc
000000000000c4a8 g     F .text	0000000000000078 TEE_GetCancellationFlag
00000000000175ac g     F .text	0000000000000298 mbedtls_mpi_gcd
000000000000c86c g     F .text	0000000000000058 TEE_SetTAPersistentTime
0000000000012d04 g     F .text	0000000000000150 mbedtls_mpi_write_binary_le
000000000001c774 g     F .text	00000000000001cc memset
000000000001b5d8 g     F .text	0000000000000130 raw_memalign
000000000000c7c8 g     F .text	00000000000000a4 TEE_GetTAPersistentTime
0000000000000b08 g     F .text	0000000000000024 dhex_dump
0000000000004194 g     F .text	0000000000000168 TEE_CreatePersistentObject
000000000000c59c g     F .text	000000000000007c TEE_MaskCancellation
00000000000085d8 g     F .text	00000000000000c0 TEE_AEUpdateAAD
00000000000048ec g     F .text	0000000000000090 TEE_TruncateObjectData
000000000000aadc g     F .text	000000000000000c _utee_cryp_obj_get_attr
000000000000325c g     F .text	0000000000000068 TEE_GetObjectInfo1
000000000000aab8 g     F .text	000000000000000c _utee_cipher_final
0000000000000544 g     F .text	0000000000000054 trace_set_level
000000000000350c g     F .text	000000000000018c TEE_GetObjectValueAttribute
0000000000006858 g     F .text	0000000000000220 TEE_SetOperationKey
0000000000019560 g     F .text	0000000000000068 mbedtls_ct_mpi_uint_lt
000000000000aa70 g     F .text	000000000000000c _utee_cryp_state_free
000000000001c940 g     F .text	0000000000000114 strcmp
000000000000a9e0 g     F .text	000000000000000c _utee_open_ta_session
000000000000d050 g     F .text	0000000000000144 TEE_BigIntConvertToS32
000000000000d978 g     F .text	0000000000000038 TEE_BigIntSub
0000000000000538 g     F .text	0000000000000008 tahead_get_trace_level
000000000000abe4 g     F .text	000000000000000c _utee_storage_start_enum
000000000000497c g     F .text	00000000000001ac TEE_SeekObjectData
000000000001057c g     F .text	000000000000010c tee_map_zi
00000000000169ec g     F .text	0000000000000038 mbedtls_mpi_montred
000000000001bc8c g     F .text	000000000000005c memalign
0000000000019448 g     F .text	0000000000000024 mbedtls_ct_uint_mask
0000000000007ba4 g     F .text	0000000000000414 TEE_CipherDoFinal
000000000000cf8c g     F .text	00000000000000c4 TEE_BigIntConvertFromS32
00000000000140c8 g     F .text	00000000000000a8 mbedtls_mpi_add_int
000000000000ab60 g     F .text	000000000000000c _utee_authenc_enc_final
000000000001c22c g     F .text	0000000000000030 malloc_buffer_is_within_alloced
000000000000aaf4 g     F .text	000000000000000c _utee_cryp_obj_close
000000000000eebc g     F .text	000000000000001c TEE_BigIntInitFMMContext
000000000000aa28 g     F .text	000000000000000c _utee_mask_cancellation
000000000000abb4 g     F .text	000000000000000c _utee_storage_obj_rename
0000000000004840 g     F .text	00000000000000ac TEE_WriteObjectData
000000000000453c g     F .text	0000000000000048 TEE_ResetPersistentObjectEnumerator
000000000000dbe8 g     F .text	000000000000002c TEE_BigIntSquare
000000000000ac08 g     F .text	000000000000000c _utee_storage_obj_write
0000000000000020 g     F .text	0000000000000034 TA_CreateEntryPoint
0000000000000500 g     F .text	0000000000000038 __ta_entry
000000000000ab48 g     F .text	000000000000000c _utee_authenc_update_aad
00000000000166cc g     F .text	0000000000000028 mbedtls_mpi_montg_init
0000000000000b2c g     F .text	00000000000000f4 snprintk
000000000000d540 g     F .text	0000000000000074 TEE_BigIntGetBitCount
000000000000ab18 g     F .text	000000000000000c _utee_cryp_obj_copy
000000000000df0c g     F .text	0000000000000040 TEE_BigIntMulMod
0000000000017c64 g     F .text	0000000000000624 mbedtls_mpi_inv_mod
0000000000009b4c g     F .text	000000000000030c TEE_DeriveKey
000000000002a530 g     O .bss	0000000000000040 ta_params
0000000000015a68 g     F .text	0000000000000878 mbedtls_mpi_div_mpi
000000000001210c g     F .text	0000000000000024 mbedtls_mpi_size
000000000001a4e4 g     F .text	0000000000000548 bget
00000000000036e0 g     F .text	00000000000000d0 TEE_AllocateTransientObject
0000000000010114 g     F .text	0000000000000044 TEE_StartPropertyEnumerator
000000000000aa34 g     F .text	000000000000000c _utee_wait
0000000000011e10 g     F .text	000000000000013c mbedtls_mpi_set_bit
000000000000c9f4 g     F .text	000000000000002c TEE_Free
000000000001884c g     F .text	0000000000000030 mbedtls_mpi_is_prime
000000000000ca70 g     F .text	0000000000000028 TEE_CacheInvalidate
0000000000010f24 g     F .text	0000000000000014 _assert_break
000000000000de8c g     F .text	0000000000000040 TEE_BigIntAddMod
0000000000019678 g     F .text	00000000000000a8 mbedtls_ct_mpi_uint_cond_assign
000000000000aa40 g     F .text	000000000000000c _utee_get_time
0000000000010158 g     F .text	00000000000001e0 TEE_GetPropertyName
00000000000050d4 g     F .text	0000000000001304 TEE_AllocateOperation
000000000000ab0c g     F .text	000000000000000c _utee_cryp_obj_populate
0000000000009e58 g     F .text	0000000000000044 TEE_GenerateRandom
000000000000c6e0 g     F .text	0000000000000030 TEE_MemCompare
000000000000aaac g     F .text	000000000000000c _utee_cipher_update
0000000000000c84 g     F .text	0000000000000114 __vsnprintf
000000000002a570 g     O .bss	0000000000000010 __elf_phdr_info
00000000000044f4 g     F .text	0000000000000048 TEE_FreePersistentObjectEnumerator
000000000000c124 g     F .text	0000000000000180 TEE_OpenTASession
0000000000002dd0 g     F .text	000000000000002c trace_ext_puts
0000000000002dfc g     F .text	0000000000000008 trace_ext_get_thread_id
00000000000042fc g     F .text	0000000000000048 TEE_CloseAndDeletePersistentObject
000000000000ab24 g     F .text	000000000000000c _utee_cryp_derive_key
000000000001164c g     F .text	00000000000000b0 mbedtls_mpi_free
000000000000ab00 g     F .text	000000000000000c _utee_cryp_obj_reset
000000000000ca20 g     F .text	0000000000000028 TEE_CacheClean
000000000000a9d4 g     F .text	000000000000000c _utee_get_property_name_to_index
000000000001b798 g     F .text	0000000000000178 raw_calloc
0000000000010f68 g     F .text	0000000000000270 _base64_enc
0000000000019be4 g     F .text	00000000000001e8 mbedtls_mpi_safe_cond_swap
000000000000ab3c g     F .text	000000000000000c _utee_authenc_init
0000000000003d04 g     F .text	0000000000000134 TEE_CopyObjectAttributes1
0000000000002cfc g     F .text	00000000000000d4 strlen
000000000000ea8c g     F .text	0000000000000330 TEE_BigIntComputeExtendedGcd
000000000000abc0 g     F .text	000000000000000c _utee_storage_alloc_enum
000000000000c744 g     F .text	000000000000003c TEE_GetSystemTime
000000000000ab84 g     F .text	000000000000000c _utee_asymm_verify
0000000000000000 g     O .ta_head	0000000000000020 ta_head
000000000001ac60 g     F .text	0000000000000408 brel
0000000000013c2c g     F .text	0000000000000264 mbedtls_mpi_sub_abs
0000000000017960 g     F .text	00000000000000a4 mbedtls_mpi_fill_random
000000000000c67c g     F .text	0000000000000024 TEE_SetInstanceData
000000000000aa04 g     F .text	000000000000000c _utee_get_cancellation_flag
00000000000126dc g     F .text	0000000000000330 mbedtls_mpi_write_string
00000000000045fc g     F .text	0000000000000144 TEE_GetNextPersistentObject
000000000000c2a4 g     F .text	0000000000000044 TEE_CloseTASession
0000000000009864 g     F .text	00000000000002e8 TEE_AsymmetricVerifyDigest
000000000000ab9c g     F .text	000000000000000c _utee_storage_obj_create
000000000001bd18 g     F .text	0000000000000024 free
0000000000008130 g     F .text	0000000000000198 TEE_MACComputeFinal
000000000002d5a0 g     O .bss	0000000000000008 mbedtls_mpi_mempool
000000000000aa94 g     F .text	000000000000000c _utee_hash_final



Disassembly of section .text:

0000000000000020 <TA_CreateEntryPoint>:
TA_CreateEntryPoint():
/home/avees/jetson_xavier/optee_examples/test_app/ta/hello_world_ta.c:47
      20:	a9bf7bfd 	stp	x29, x30, [sp, #-16]!
      24:	910003fd 	mov	x29, sp
/home/avees/jetson_xavier/optee_examples/test_app/ta/hello_world_ta.c:48
      28:	f00000e0 	adrp	x0, 1f000 <__text_end+0x20cc>
      2c:	9131a004 	add	x4, x0, #0xc68
      30:	52800023 	mov	w3, #0x1                   	// #1
      34:	52800062 	mov	w2, #0x3                   	// #3
      38:	52800601 	mov	w1, #0x30                  	// #48
      3c:	f00000e0 	adrp	x0, 1f000 <__text_end+0x20cc>
      40:	91326000 	add	x0, x0, #0xc98
      44:	94000195 	bl	698 <trace_printf>
/home/avees/jetson_xavier/optee_examples/test_app/ta/hello_world_ta.c:50
      48:	52800000 	mov	w0, #0x0                   	// #0
/home/avees/jetson_xavier/optee_examples/test_app/ta/hello_world_ta.c:51
      4c:	a8c17bfd 	ldp	x29, x30, [sp], #16
      50:	d65f03c0 	ret

0000000000000054 <TA_DestroyEntryPoint>:
TA_DestroyEntryPoint():
/home/avees/jetson_xavier/optee_examples/test_app/ta/hello_world_ta.c:58
      54:	a9bf7bfd 	stp	x29, x30, [sp, #-16]!
      58:	910003fd 	mov	x29, sp
/home/avees/jetson_xavier/optee_examples/test_app/ta/hello_world_ta.c:59
      5c:	f00000e0 	adrp	x0, 1f000 <__text_end+0x20cc>
      60:	9131a004 	add	x4, x0, #0xc68
      64:	52800023 	mov	w3, #0x1                   	// #1
      68:	52800062 	mov	w2, #0x3                   	// #3
      6c:	52800761 	mov	w1, #0x3b                  	// #59
      70:	f00000e0 	adrp	x0, 1f000 <__text_end+0x20cc>
      74:	9132c000 	add	x0, x0, #0xcb0
      78:	94000188 	bl	698 <trace_printf>
/home/avees/jetson_xavier/optee_examples/test_app/ta/hello_world_ta.c:60
      7c:	d503201f 	nop
      80:	a8c17bfd 	ldp	x29, x30, [sp], #16
      84:	d65f03c0 	ret

0000000000000088 <TA_OpenSessionEntryPoint>:
TA_OpenSessionEntryPoint():
/home/avees/jetson_xavier/optee_examples/test_app/ta/hello_world_ta.c:71
      88:	a9bc7bfd 	stp	x29, x30, [sp, #-64]!
      8c:	910003fd 	mov	x29, sp
      90:	b9002fe0 	str	w0, [sp, #44]
      94:	f90013e1 	str	x1, [sp, #32]
      98:	f9000fe2 	str	x2, [sp, #24]
/home/avees/jetson_xavier/optee_examples/test_app/ta/hello_world_ta.c:72
      9c:	b9003fff 	str	wzr, [sp, #60]
/home/avees/jetson_xavier/optee_examples/test_app/ta/hello_world_ta.c:77
      a0:	f00000e0 	adrp	x0, 1f000 <__text_end+0x20cc>
      a4:	9131a004 	add	x4, x0, #0xc68
      a8:	52800023 	mov	w3, #0x1                   	// #1
      ac:	52800062 	mov	w2, #0x3                   	// #3
      b0:	528009a1 	mov	w1, #0x4d                  	// #77
      b4:	f00000e0 	adrp	x0, 1f000 <__text_end+0x20cc>
      b8:	91332000 	add	x0, x0, #0xcc8
      bc:	94000177 	bl	698 <trace_printf>
/home/avees/jetson_xavier/optee_examples/test_app/ta/hello_world_ta.c:79
      c0:	b9402fe1 	ldr	w1, [sp, #44]
      c4:	b9403fe0 	ldr	w0, [sp, #60]
      c8:	6b00003f 	cmp	w1, w0
      cc:	54000060 	b.eq	d8 <TA_OpenSessionEntryPoint+0x50>  // b.none
/home/avees/jetson_xavier/optee_examples/test_app/ta/hello_world_ta.c:80
      d0:	129fff20 	mov	w0, #0xffff0006            	// #-65530
      d4:	1400000a 	b	fc <TA_OpenSessionEntryPoint+0x74>
/home/avees/jetson_xavier/optee_examples/test_app/ta/hello_world_ta.c:90
      d8:	f00000e0 	adrp	x0, 1f000 <__text_end+0x20cc>
      dc:	9131e004 	add	x4, x0, #0xc78
      e0:	52800023 	mov	w3, #0x1                   	// #1
      e4:	52800042 	mov	w2, #0x2                   	// #2
      e8:	52800b41 	mov	w1, #0x5a                  	// #90
      ec:	f00000e0 	adrp	x0, 1f000 <__text_end+0x20cc>
      f0:	91332000 	add	x0, x0, #0xcc8
      f4:	94000169 	bl	698 <trace_printf>
/home/avees/jetson_xavier/optee_examples/test_app/ta/hello_world_ta.c:93
      f8:	52800000 	mov	w0, #0x0                   	// #0
/home/avees/jetson_xavier/optee_examples/test_app/ta/hello_world_ta.c:94
      fc:	a8c47bfd 	ldp	x29, x30, [sp], #64
     100:	d65f03c0 	ret

0000000000000104 <TA_CloseSessionEntryPoint>:
TA_CloseSessionEntryPoint():
/home/avees/jetson_xavier/optee_examples/test_app/ta/hello_world_ta.c:101
     104:	a9be7bfd 	stp	x29, x30, [sp, #-32]!
     108:	910003fd 	mov	x29, sp
     10c:	f9000fe0 	str	x0, [sp, #24]
/home/avees/jetson_xavier/optee_examples/test_app/ta/hello_world_ta.c:103
     110:	f00000e0 	adrp	x0, 1f000 <__text_end+0x20cc>
     114:	91322004 	add	x4, x0, #0xc88
     118:	52800023 	mov	w3, #0x1                   	// #1
     11c:	52800042 	mov	w2, #0x2                   	// #2
     120:	52800ce1 	mov	w1, #0x67                  	// #103
     124:	f00000e0 	adrp	x0, 1f000 <__text_end+0x20cc>
     128:	9133a000 	add	x0, x0, #0xce8
     12c:	9400015b 	bl	698 <trace_printf>
/home/avees/jetson_xavier/optee_examples/test_app/ta/hello_world_ta.c:104
     130:	d503201f 	nop
     134:	a8c27bfd 	ldp	x29, x30, [sp], #32
     138:	d65f03c0 	ret

000000000000013c <verify_signature_with_public_key>:
verify_signature_with_public_key():
/home/avees/jetson_xavier/optee_examples/test_app/ta/hello_world_ta.c:168
     13c:	a9b67bfd 	stp	x29, x30, [sp, #-160]!
     140:	910003fd 	mov	x29, sp
     144:	f90027e0 	str	x0, [sp, #72]
     148:	f90023e1 	str	x1, [sp, #64]
     14c:	f9001fe2 	str	x2, [sp, #56]
     150:	f9001be3 	str	x3, [sp, #48]
     154:	f90017e4 	str	x4, [sp, #40]
     158:	f90013e5 	str	x5, [sp, #32]
     15c:	f9000fe6 	str	x6, [sp, #24]
     160:	f9000be7 	str	x7, [sp, #16]
     164:	d0000100 	adrp	x0, 22000 <_DYNAMIC>
     168:	f9409800 	ldr	x0, [x0, #304]
     16c:	f9400001 	ldr	x1, [x0]
     170:	f9004fe1 	str	x1, [sp, #152]
     174:	d2800001 	mov	x1, #0x0                   	// #0
/home/avees/jetson_xavier/optee_examples/test_app/ta/hello_world_ta.c:170
     178:	f9002fff 	str	xzr, [sp, #88]
/home/avees/jetson_xavier/optee_examples/test_app/ta/hello_world_ta.c:171
     17c:	f90033ff 	str	xzr, [sp, #96]
/home/avees/jetson_xavier/optee_examples/test_app/ta/hello_world_ta.c:174
     180:	910163e0 	add	x0, sp, #0x58
     184:	aa0003e2 	mov	x2, x0
     188:	52810001 	mov	w1, #0x800                 	// #2048
     18c:	52800600 	mov	w0, #0x30                  	// #48
     190:	72b40000 	movk	w0, #0xa000, lsl #16
     194:	94000d53 	bl	36e0 <TEE_AllocateTransientObject>
     198:	b90057e0 	str	w0, [sp, #84]
/home/avees/jetson_xavier/optee_examples/test_app/ta/hello_world_ta.c:175
     19c:	b94057e0 	ldr	w0, [sp, #84]
     1a0:	7100001f 	cmp	w0, #0x0
     1a4:	54000060 	b.eq	1b0 <verify_signature_with_public_key+0x74>  // b.none
/home/avees/jetson_xavier/optee_examples/test_app/ta/hello_world_ta.c:175 (discriminator 1)
     1a8:	b94057e0 	ldr	w0, [sp, #84]
     1ac:	1400004a 	b	2d4 <verify_signature_with_public_key+0x198>
/home/avees/jetson_xavier/optee_examples/test_app/ta/hello_world_ta.c:179
     1b0:	f9401be0 	ldr	x0, [sp, #48]
     1b4:	2a0003e1 	mov	w1, w0
     1b8:	9101a3e0 	add	x0, sp, #0x68
     1bc:	2a0103e3 	mov	w3, w1
     1c0:	f9401fe2 	ldr	x2, [sp, #56]
     1c4:	52802601 	mov	w1, #0x130                 	// #304
     1c8:	72ba0001 	movk	w1, #0xd000, lsl #16
     1cc:	94000e71 	bl	3b90 <TEE_InitRefAttribute>
/home/avees/jetson_xavier/optee_examples/test_app/ta/hello_world_ta.c:180
     1d0:	f94013e0 	ldr	x0, [sp, #32]
     1d4:	2a0003e1 	mov	w1, w0
     1d8:	9101a3e0 	add	x0, sp, #0x68
     1dc:	91006000 	add	x0, x0, #0x18
     1e0:	2a0103e3 	mov	w3, w1
     1e4:	f94017e2 	ldr	x2, [sp, #40]
     1e8:	52804601 	mov	w1, #0x230                 	// #560
     1ec:	72ba0001 	movk	w1, #0xd000, lsl #16
     1f0:	94000e68 	bl	3b90 <TEE_InitRefAttribute>
/home/avees/jetson_xavier/optee_examples/test_app/ta/hello_world_ta.c:181
     1f4:	f9402fe0 	ldr	x0, [sp, #88]
     1f8:	9101a3e1 	add	x1, sp, #0x68
     1fc:	52800042 	mov	w2, #0x2                   	// #2
     200:	94000dc8 	bl	3920 <TEE_PopulateTransientObject>
     204:	b90057e0 	str	w0, [sp, #84]
/home/avees/jetson_xavier/optee_examples/test_app/ta/hello_world_ta.c:182
     208:	b94057e0 	ldr	w0, [sp, #84]
     20c:	7100001f 	cmp	w0, #0x0
     210:	540000a0 	b.eq	224 <verify_signature_with_public_key+0xe8>  // b.none
/home/avees/jetson_xavier/optee_examples/test_app/ta/hello_world_ta.c:183
     214:	f9402fe0 	ldr	x0, [sp, #88]
     218:	94000d66 	bl	37b0 <TEE_FreeTransientObject>
/home/avees/jetson_xavier/optee_examples/test_app/ta/hello_world_ta.c:184
     21c:	b94057e0 	ldr	w0, [sp, #84]
     220:	1400002d 	b	2d4 <verify_signature_with_public_key+0x198>
/home/avees/jetson_xavier/optee_examples/test_app/ta/hello_world_ta.c:188
     224:	910183e0 	add	x0, sp, #0x60
     228:	52810003 	mov	w3, #0x800                 	// #2048
     22c:	52800062 	mov	w2, #0x3                   	// #3
     230:	52810601 	mov	w1, #0x830                 	// #2096
     234:	72be0001 	movk	w1, #0xf000, lsl #16
     238:	940013a7 	bl	50d4 <TEE_AllocateOperation>
     23c:	b90057e0 	str	w0, [sp, #84]
/home/avees/jetson_xavier/optee_examples/test_app/ta/hello_world_ta.c:189
     240:	b94057e0 	ldr	w0, [sp, #84]
     244:	7100001f 	cmp	w0, #0x0
     248:	540000a0 	b.eq	25c <verify_signature_with_public_key+0x120>  // b.none
/home/avees/jetson_xavier/optee_examples/test_app/ta/hello_world_ta.c:190
     24c:	f9402fe0 	ldr	x0, [sp, #88]
     250:	94000d58 	bl	37b0 <TEE_FreeTransientObject>
/home/avees/jetson_xavier/optee_examples/test_app/ta/hello_world_ta.c:191
     254:	b94057e0 	ldr	w0, [sp, #84]
     258:	1400001f 	b	2d4 <verify_signature_with_public_key+0x198>
/home/avees/jetson_xavier/optee_examples/test_app/ta/hello_world_ta.c:194
     25c:	f94033e0 	ldr	x0, [sp, #96]
     260:	f9402fe1 	ldr	x1, [sp, #88]
     264:	9400197d 	bl	6858 <TEE_SetOperationKey>
     268:	b90057e0 	str	w0, [sp, #84]
/home/avees/jetson_xavier/optee_examples/test_app/ta/hello_world_ta.c:195
     26c:	b94057e0 	ldr	w0, [sp, #84]
     270:	7100001f 	cmp	w0, #0x0
     274:	540000e0 	b.eq	290 <verify_signature_with_public_key+0x154>  // b.none
/home/avees/jetson_xavier/optee_examples/test_app/ta/hello_world_ta.c:196
     278:	f94033e0 	ldr	x0, [sp, #96]
     27c:	94001857 	bl	63d8 <TEE_FreeOperation>
/home/avees/jetson_xavier/optee_examples/test_app/ta/hello_world_ta.c:197
     280:	f9402fe0 	ldr	x0, [sp, #88]
     284:	94000d4b 	bl	37b0 <TEE_FreeTransientObject>
/home/avees/jetson_xavier/optee_examples/test_app/ta/hello_world_ta.c:198
     288:	b94057e0 	ldr	w0, [sp, #84]
     28c:	14000012 	b	2d4 <verify_signature_with_public_key+0x198>
/home/avees/jetson_xavier/optee_examples/test_app/ta/hello_world_ta.c:202
     290:	f94033e0 	ldr	x0, [sp, #96]
     294:	f9400be1 	ldr	x1, [sp, #16]
     298:	2a0103e2 	mov	w2, w1
     29c:	f94023e1 	ldr	x1, [sp, #64]
     2a0:	2a0103e6 	mov	w6, w1
     2a4:	f94027e5 	ldr	x5, [sp, #72]
     2a8:	2a0203e4 	mov	w4, w2
     2ac:	f9400fe3 	ldr	x3, [sp, #24]
     2b0:	52800002 	mov	w2, #0x0                   	// #0
     2b4:	d2800001 	mov	x1, #0x0                   	// #0
     2b8:	9400256b 	bl	9864 <TEE_AsymmetricVerifyDigest>
     2bc:	b90057e0 	str	w0, [sp, #84]
/home/avees/jetson_xavier/optee_examples/test_app/ta/hello_world_ta.c:203
     2c0:	f94033e0 	ldr	x0, [sp, #96]
     2c4:	94001845 	bl	63d8 <TEE_FreeOperation>
/home/avees/jetson_xavier/optee_examples/test_app/ta/hello_world_ta.c:204
     2c8:	f9402fe0 	ldr	x0, [sp, #88]
     2cc:	94000d39 	bl	37b0 <TEE_FreeTransientObject>
/home/avees/jetson_xavier/optee_examples/test_app/ta/hello_world_ta.c:206
     2d0:	b94057e0 	ldr	w0, [sp, #84]
     2d4:	2a0003e1 	mov	w1, w0
/home/avees/jetson_xavier/optee_examples/test_app/ta/hello_world_ta.c:207 (discriminator 1)
     2d8:	d0000100 	adrp	x0, 22000 <_DYNAMIC>
     2dc:	f9409800 	ldr	x0, [x0, #304]
     2e0:	f9404fe2 	ldr	x2, [sp, #152]
     2e4:	f9400003 	ldr	x3, [x0]
     2e8:	eb030042 	subs	x2, x2, x3
     2ec:	d2800003 	mov	x3, #0x0                   	// #0
     2f0:	54000040 	b.eq	2f8 <verify_signature_with_public_key+0x1bc>  // b.none
/home/avees/jetson_xavier/optee_examples/test_app/ta/hello_world_ta.c:207
     2f4:	94000093 	bl	540 <__stack_chk_fail>
     2f8:	2a0103e0 	mov	w0, w1
     2fc:	a8ca7bfd 	ldp	x29, x30, [sp], #160
     300:	d65f03c0 	ret

0000000000000304 <inc_value>:
inc_value():
/home/avees/jetson_xavier/optee_examples/test_app/ta/hello_world_ta.c:209
     304:	a9ba7bfd 	stp	x29, x30, [sp, #-96]!
     308:	910003fd 	mov	x29, sp
     30c:	b9001fe0 	str	w0, [sp, #28]
     310:	f9000be1 	str	x1, [sp, #16]
     314:	d0000100 	adrp	x0, 22000 <_DYNAMIC>
     318:	f9409800 	ldr	x0, [x0, #304]
     31c:	f9400001 	ldr	x1, [x0]
     320:	f9002fe1 	str	x1, [sp, #88]
     324:	d2800001 	mov	x1, #0x0                   	// #0
/home/avees/jetson_xavier/optee_examples/test_app/ta/hello_world_ta.c:211
     328:	5280aa60 	mov	w0, #0x553                 	// #1363
     32c:	b9002be0 	str	w0, [sp, #40]
/home/avees/jetson_xavier/optee_examples/test_app/ta/hello_world_ta.c:217
     330:	b9401fe1 	ldr	w1, [sp, #28]
     334:	b9402be0 	ldr	w0, [sp, #40]
     338:	6b00003f 	cmp	w1, w0
     33c:	54000060 	b.eq	348 <inc_value+0x44>  // b.none
/home/avees/jetson_xavier/optee_examples/test_app/ta/hello_world_ta.c:218
     340:	129fff20 	mov	w0, #0xffff0006            	// #-65530
     344:	14000031 	b	408 <inc_value+0x104>
/home/avees/jetson_xavier/optee_examples/test_app/ta/hello_world_ta.c:222
     348:	f9400be0 	ldr	x0, [sp, #16]
     34c:	91008000 	add	x0, x0, #0x20
     350:	f9400000 	ldr	x0, [x0]
     354:	f9001be0 	str	x0, [sp, #48]
/home/avees/jetson_xavier/optee_examples/test_app/ta/hello_world_ta.c:223
     358:	d2802000 	mov	x0, #0x100                 	// #256
     35c:	f9001fe0 	str	x0, [sp, #56]
/home/avees/jetson_xavier/optee_examples/test_app/ta/hello_world_ta.c:224
     360:	f9401be1 	ldr	x1, [sp, #48]
     364:	f9401fe0 	ldr	x0, [sp, #56]
     368:	8b000020 	add	x0, x1, x0
     36c:	f90023e0 	str	x0, [sp, #64]
/home/avees/jetson_xavier/optee_examples/test_app/ta/hello_world_ta.c:225
     370:	f9400be0 	ldr	x0, [sp, #16]
     374:	91008000 	add	x0, x0, #0x20
     378:	b9400800 	ldr	w0, [x0, #8]
     37c:	2a0003e1 	mov	w1, w0
     380:	f9401fe0 	ldr	x0, [sp, #56]
     384:	cb000020 	sub	x0, x1, x0
     388:	f90027e0 	str	x0, [sp, #72]
/home/avees/jetson_xavier/optee_examples/test_app/ta/hello_world_ta.c:228
     38c:	52864620 	mov	w0, #0x3231                	// #12849
     390:	7900a3e0 	strh	w0, [sp, #80]
     394:	52800660 	mov	w0, #0x33                  	// #51
     398:	39014be0 	strb	w0, [sp, #82]
/home/avees/jetson_xavier/optee_examples/test_app/ta/hello_world_ta.c:230
     39c:	f9400be0 	ldr	x0, [sp, #16]
     3a0:	91004000 	add	x0, x0, #0x10
     3a4:	f9400008 	ldr	x8, [x0]
     3a8:	f9400be0 	ldr	x0, [sp, #16]
     3ac:	91004000 	add	x0, x0, #0x10
     3b0:	b9400800 	ldr	w0, [x0, #8]
/home/avees/jetson_xavier/optee_examples/test_app/ta/hello_world_ta.c:229
     3b4:	2a0003e0 	mov	w0, w0
     3b8:	910143e1 	add	x1, sp, #0x50
     3bc:	d2800067 	mov	x7, #0x3                   	// #3
     3c0:	aa0103e6 	mov	x6, x1
     3c4:	f94027e5 	ldr	x5, [sp, #72]
     3c8:	f94023e4 	ldr	x4, [sp, #64]
     3cc:	f9401fe3 	ldr	x3, [sp, #56]
     3d0:	f9401be2 	ldr	x2, [sp, #48]
     3d4:	aa0003e1 	mov	x1, x0
     3d8:	aa0803e0 	mov	x0, x8
     3dc:	97ffff58 	bl	13c <verify_signature_with_public_key>
     3e0:	b9002fe0 	str	w0, [sp, #44]
/home/avees/jetson_xavier/optee_examples/test_app/ta/hello_world_ta.c:237
     3e4:	b9402fe0 	ldr	w0, [sp, #44]
     3e8:	7100001f 	cmp	w0, #0x0
     3ec:	540000c1 	b.ne	404 <inc_value+0x100>  // b.any
/home/avees/jetson_xavier/optee_examples/test_app/ta/hello_world_ta.c:238
     3f0:	f9400be0 	ldr	x0, [sp, #16]
     3f4:	52800181 	mov	w1, #0xc                   	// #12
     3f8:	b9000001 	str	w1, [x0]
/home/avees/jetson_xavier/optee_examples/test_app/ta/hello_world_ta.c:239
     3fc:	52800000 	mov	w0, #0x0                   	// #0
     400:	14000002 	b	408 <inc_value+0x104>
/home/avees/jetson_xavier/optee_examples/test_app/ta/hello_world_ta.c:241
     404:	b9402fe0 	ldr	w0, [sp, #44]
     408:	2a0003e1 	mov	w1, w0
/home/avees/jetson_xavier/optee_examples/test_app/ta/hello_world_ta.c:243 (discriminator 1)
     40c:	d0000100 	adrp	x0, 22000 <_DYNAMIC>
     410:	f9409800 	ldr	x0, [x0, #304]
     414:	f9402fe2 	ldr	x2, [sp, #88]
     418:	f9400003 	ldr	x3, [x0]
     41c:	eb030042 	subs	x2, x2, x3
     420:	d2800003 	mov	x3, #0x0                   	// #0
     424:	54000040 	b.eq	42c <inc_value+0x128>  // b.none
/home/avees/jetson_xavier/optee_examples/test_app/ta/hello_world_ta.c:243
     428:	94000046 	bl	540 <__stack_chk_fail>
     42c:	2a0103e0 	mov	w0, w1
     430:	a8c67bfd 	ldp	x29, x30, [sp], #96
     434:	d65f03c0 	ret

0000000000000438 <dec_value>:
dec_value():
/home/avees/jetson_xavier/optee_examples/test_app/ta/hello_world_ta.c:247
     438:	a9bd7bfd 	stp	x29, x30, [sp, #-48]!
     43c:	910003fd 	mov	x29, sp
     440:	b9001fe0 	str	w0, [sp, #28]
     444:	f9000be1 	str	x1, [sp, #16]
/home/avees/jetson_xavier/optee_examples/test_app/ta/hello_world_ta.c:248
     448:	5280aa60 	mov	w0, #0x553                 	// #1363
     44c:	b9002fe0 	str	w0, [sp, #44]
/home/avees/jetson_xavier/optee_examples/test_app/ta/hello_world_ta.c:253
     450:	f00000e0 	adrp	x0, 1f000 <__text_end+0x20cc>
     454:	9131a004 	add	x4, x0, #0xc68
     458:	52800023 	mov	w3, #0x1                   	// #1
     45c:	52800062 	mov	w2, #0x3                   	// #3
     460:	52801fa1 	mov	w1, #0xfd                  	// #253
     464:	f00000e0 	adrp	x0, 1f000 <__text_end+0x20cc>
     468:	91342000 	add	x0, x0, #0xd08
     46c:	9400008b 	bl	698 <trace_printf>
/home/avees/jetson_xavier/optee_examples/test_app/ta/hello_world_ta.c:254
     470:	f9400be0 	ldr	x0, [sp, #16]
     474:	5282b661 	mov	w1, #0x15b3                	// #5555
     478:	b9000001 	str	w1, [x0]
/home/avees/jetson_xavier/optee_examples/test_app/ta/hello_world_ta.c:255
     47c:	b9401fe1 	ldr	w1, [sp, #28]
     480:	b9402fe0 	ldr	w0, [sp, #44]
     484:	6b00003f 	cmp	w1, w0
     488:	54000060 	b.eq	494 <dec_value+0x5c>  // b.none
/home/avees/jetson_xavier/optee_examples/test_app/ta/hello_world_ta.c:256
     48c:	129fff20 	mov	w0, #0xffff0006            	// #-65530
     490:	14000002 	b	498 <dec_value+0x60>
/home/avees/jetson_xavier/optee_examples/test_app/ta/hello_world_ta.c:259
     494:	52800000 	mov	w0, #0x0                   	// #0
/home/avees/jetson_xavier/optee_examples/test_app/ta/hello_world_ta.c:260
     498:	a8c37bfd 	ldp	x29, x30, [sp], #48
     49c:	d65f03c0 	ret

00000000000004a0 <TA_InvokeCommandEntryPoint>:
TA_InvokeCommandEntryPoint():
/home/avees/jetson_xavier/optee_examples/test_app/ta/hello_world_ta.c:269
     4a0:	a9bd7bfd 	stp	x29, x30, [sp, #-48]!
     4a4:	910003fd 	mov	x29, sp
     4a8:	f90017e0 	str	x0, [sp, #40]
     4ac:	b90027e1 	str	w1, [sp, #36]
     4b0:	b90023e2 	str	w2, [sp, #32]
     4b4:	f9000fe3 	str	x3, [sp, #24]
/home/avees/jetson_xavier/optee_examples/test_app/ta/hello_world_ta.c:272
     4b8:	b94027e0 	ldr	w0, [sp, #36]
     4bc:	7100001f 	cmp	w0, #0x0
     4c0:	540000a0 	b.eq	4d4 <TA_InvokeCommandEntryPoint+0x34>  // b.none
     4c4:	b94027e0 	ldr	w0, [sp, #36]
     4c8:	7100041f 	cmp	w0, #0x1
     4cc:	540000c0 	b.eq	4e4 <TA_InvokeCommandEntryPoint+0x44>  // b.none
     4d0:	14000009 	b	4f4 <TA_InvokeCommandEntryPoint+0x54>
/home/avees/jetson_xavier/optee_examples/test_app/ta/hello_world_ta.c:274
     4d4:	f9400fe1 	ldr	x1, [sp, #24]
     4d8:	b94023e0 	ldr	w0, [sp, #32]
     4dc:	97ffff8a 	bl	304 <inc_value>
     4e0:	14000006 	b	4f8 <TA_InvokeCommandEntryPoint+0x58>
/home/avees/jetson_xavier/optee_examples/test_app/ta/hello_world_ta.c:276
     4e4:	f9400fe1 	ldr	x1, [sp, #24]
     4e8:	b94023e0 	ldr	w0, [sp, #32]
     4ec:	97ffffd3 	bl	438 <dec_value>
     4f0:	14000002 	b	4f8 <TA_InvokeCommandEntryPoint+0x58>
/home/avees/jetson_xavier/optee_examples/test_app/ta/hello_world_ta.c:278
     4f4:	129fff20 	mov	w0, #0xffff0006            	// #-65530
/home/avees/jetson_xavier/optee_examples/test_app/ta/hello_world_ta.c:280
     4f8:	a8c37bfd 	ldp	x29, x30, [sp], #48
     4fc:	d65f03c0 	ret

0000000000000500 <__ta_entry>:
__ta_entry():
/home/avees/optee_os/out/arm/export-ta_arm64/src/user_ta_header.c:48
     500:	a9bc7bfd 	stp	x29, x30, [sp, #-64]!
     504:	910003fd 	mov	x29, sp
     508:	f90017e0 	str	x0, [sp, #40]
     50c:	f90013e1 	str	x1, [sp, #32]
     510:	f9000fe2 	str	x2, [sp, #24]
     514:	f9000be3 	str	x3, [sp, #16]
/home/avees/optee_os/out/arm/export-ta_arm64/src/user_ta_header.c:49
     518:	f9400be3 	ldr	x3, [sp, #16]
     51c:	f9400fe2 	ldr	x2, [sp, #24]
     520:	f94013e1 	ldr	x1, [sp, #32]
     524:	f94017e0 	ldr	x0, [sp, #40]
     528:	94002d62 	bl	bab0 <__utee_entry>
     52c:	b9003fe0 	str	w0, [sp, #60]
/home/avees/optee_os/out/arm/export-ta_arm64/src/user_ta_header.c:60
     530:	b9403fe0 	ldr	w0, [sp, #60]
     534:	9400291c 	bl	a9a4 <_utee_return>

0000000000000538 <tahead_get_trace_level>:
tahead_get_trace_level():
/home/avees/optee_os/out/arm/export-ta_arm64/src/user_ta_header.c:153
     538:	52800080 	mov	w0, #0x4                   	// #4
/home/avees/optee_os/out/arm/export-ta_arm64/src/user_ta_header.c:154
     53c:	d65f03c0 	ret

0000000000000540 <__stack_chk_fail>:
__stack_chk_fail():
/home/avees/optee_os-nvidia/lib/libutils/isoc/stack_check.c:12 (discriminator 1)
     540:	14000000 	b	540 <__stack_chk_fail>

0000000000000544 <trace_set_level>:
trace_set_level():
/home/avees/optee_os-nvidia/lib/libutils/ext/trace.c:24
     544:	d10043ff 	sub	sp, sp, #0x10
     548:	b9000fe0 	str	w0, [sp, #12]
/home/avees/optee_os-nvidia/lib/libutils/ext/trace.c:25
     54c:	b9400fe0 	ldr	w0, [sp, #12]
     550:	7100001f 	cmp	w0, #0x0
     554:	5400012b 	b.lt	578 <trace_set_level+0x34>  // b.tstop
/home/avees/optee_os-nvidia/lib/libutils/ext/trace.c:25 (discriminator 1)
     558:	b9400fe0 	ldr	w0, [sp, #12]
     55c:	7100101f 	cmp	w0, #0x4
     560:	540000cc 	b.gt	578 <trace_set_level+0x34>
/home/avees/optee_os-nvidia/lib/libutils/ext/trace.c:26
     564:	d0000100 	adrp	x0, 22000 <_DYNAMIC>
     568:	f940a400 	ldr	x0, [x0, #328]
     56c:	b9400fe1 	ldr	w1, [sp, #12]
     570:	b9000001 	str	w1, [x0]
     574:	14000006 	b	58c <trace_set_level+0x48>
/home/avees/optee_os-nvidia/lib/libutils/ext/trace.c:28
     578:	d0000100 	adrp	x0, 22000 <_DYNAMIC>
     57c:	f940a400 	ldr	x0, [x0, #328]
     580:	52800081 	mov	w1, #0x4                   	// #4
     584:	b9000001 	str	w1, [x0]
/home/avees/optee_os-nvidia/lib/libutils/ext/trace.c:29
     588:	d503201f 	nop
     58c:	d503201f 	nop
     590:	910043ff 	add	sp, sp, #0x10
     594:	d65f03c0 	ret

0000000000000598 <trace_get_level>:
trace_get_level():
/home/avees/optee_os-nvidia/lib/libutils/ext/trace.c:33
     598:	d0000100 	adrp	x0, 22000 <_DYNAMIC>
     59c:	f940a400 	ldr	x0, [x0, #328]
     5a0:	b9400000 	ldr	w0, [x0]
/home/avees/optee_os-nvidia/lib/libutils/ext/trace.c:34
     5a4:	d65f03c0 	ret

00000000000005a8 <trace_level_to_string>:
trace_level_to_string():
/home/avees/optee_os-nvidia/lib/libutils/ext/trace.c:37
     5a8:	d10083ff 	sub	sp, sp, #0x20
     5ac:	b9000fe0 	str	w0, [sp, #12]
     5b0:	39002fe1 	strb	w1, [sp, #11]
/home/avees/optee_os-nvidia/lib/libutils/ext/trace.c:46
     5b4:	b9001fff 	str	wzr, [sp, #28]
/home/avees/optee_os-nvidia/lib/libutils/ext/trace.c:48
     5b8:	39402fe0 	ldrb	w0, [sp, #11]
     5bc:	52000000 	eor	w0, w0, #0x1
     5c0:	12001c00 	and	w0, w0, #0xff
     5c4:	7100001f 	cmp	w0, #0x0
     5c8:	54000060 	b.eq	5d4 <trace_level_to_string+0x2c>  // b.none
/home/avees/optee_os-nvidia/lib/libutils/ext/trace.c:49
     5cc:	528009a0 	mov	w0, #0x4d                  	// #77
     5d0:	1400000d 	b	604 <trace_level_to_string+0x5c>
/home/avees/optee_os-nvidia/lib/libutils/ext/trace.c:51
     5d4:	b9400fe0 	ldr	w0, [sp, #12]
     5d8:	7100001f 	cmp	w0, #0x0
     5dc:	540000cb 	b.lt	5f4 <trace_level_to_string+0x4c>  // b.tstop
/home/avees/optee_os-nvidia/lib/libutils/ext/trace.c:51 (discriminator 1)
     5e0:	b9400fe0 	ldr	w0, [sp, #12]
     5e4:	7100101f 	cmp	w0, #0x4
     5e8:	5400006c 	b.gt	5f4 <trace_level_to_string+0x4c>
/home/avees/optee_os-nvidia/lib/libutils/ext/trace.c:52
     5ec:	b9400fe0 	ldr	w0, [sp, #12]
     5f0:	b9001fe0 	str	w0, [sp, #28]
/home/avees/optee_os-nvidia/lib/libutils/ext/trace.c:54
     5f4:	f00000e0 	adrp	x0, 1f000 <__text_end+0x20cc>
     5f8:	913b0001 	add	x1, x0, #0xec0
     5fc:	b9801fe0 	ldrsw	x0, [sp, #28]
     600:	38606820 	ldrb	w0, [x1, x0]
/home/avees/optee_os-nvidia/lib/libutils/ext/trace.c:55
     604:	910083ff 	add	sp, sp, #0x20
     608:	d65f03c0 	ret

000000000000060c <print_thread_id>:
print_thread_id():
/home/avees/optee_os-nvidia/lib/libutils/ext/trace.c:58
     60c:	a9bd7bfd 	stp	x29, x30, [sp, #-48]!
     610:	910003fd 	mov	x29, sp
     614:	f9000fe0 	str	x0, [sp, #24]
     618:	f9000be1 	str	x1, [sp, #16]
/home/avees/optee_os-nvidia/lib/libutils/ext/trace.c:64
     61c:	52800020 	mov	w0, #0x1                   	// #1
     620:	b9002be0 	str	w0, [sp, #40]
/home/avees/optee_os-nvidia/lib/libutils/ext/trace.c:66
     624:	940009f6 	bl	2dfc <trace_ext_get_thread_id>
     628:	b9002fe0 	str	w0, [sp, #44]
/home/avees/optee_os-nvidia/lib/libutils/ext/trace.c:68
     62c:	b9402fe0 	ldr	w0, [sp, #44]
     630:	7100001f 	cmp	w0, #0x0
     634:	5400012b 	b.lt	658 <print_thread_id+0x4c>  // b.tstop
/home/avees/optee_os-nvidia/lib/libutils/ext/trace.c:69
     638:	b9402fe4 	ldr	w4, [sp, #44]
     63c:	b9402be3 	ldr	w3, [sp, #40]
     640:	f00000e0 	adrp	x0, 1f000 <__text_end+0x20cc>
     644:	913a4002 	add	x2, x0, #0xe90
     648:	f9400be1 	ldr	x1, [sp, #16]
     64c:	f9400fe0 	ldr	x0, [sp, #24]
     650:	94000137 	bl	b2c <snprintk>
     654:	14000009 	b	678 <print_thread_id+0x6c>
/home/avees/optee_os-nvidia/lib/libutils/ext/trace.c:71
     658:	f00000e0 	adrp	x0, 1f000 <__text_end+0x20cc>
     65c:	913a6004 	add	x4, x0, #0xe98
     660:	b9402be3 	ldr	w3, [sp, #40]
     664:	f00000e0 	adrp	x0, 1f000 <__text_end+0x20cc>
     668:	913a8002 	add	x2, x0, #0xea0
     66c:	f9400be1 	ldr	x1, [sp, #16]
     670:	f9400fe0 	ldr	x0, [sp, #24]
     674:	9400012e 	bl	b2c <snprintk>
/home/avees/optee_os-nvidia/lib/libutils/ext/trace.c:72
     678:	a8c37bfd 	ldp	x29, x30, [sp], #48
     67c:	d65f03c0 	ret

0000000000000680 <print_core_id>:
print_core_id():
/home/avees/optee_os-nvidia/lib/libutils/ext/trace.c:96
     680:	d10043ff 	sub	sp, sp, #0x10
     684:	f90007e0 	str	x0, [sp, #8]
     688:	f90003e1 	str	x1, [sp]
/home/avees/optee_os-nvidia/lib/libutils/ext/trace.c:97
     68c:	52800000 	mov	w0, #0x0                   	// #0
/home/avees/optee_os-nvidia/lib/libutils/ext/trace.c:98
     690:	910043ff 	add	sp, sp, #0x10
     694:	d65f03c0 	ret

0000000000000698 <trace_printf>:
trace_printf():
/home/avees/optee_os-nvidia/lib/libutils/ext/trace.c:104
     698:	a9ae7bfd 	stp	x29, x30, [sp, #-288]!
     69c:	910003fd 	mov	x29, sp
     6a0:	f90027e0 	str	x0, [sp, #72]
     6a4:	b90047e1 	str	w1, [sp, #68]
     6a8:	b90043e2 	str	w2, [sp, #64]
     6ac:	3900ffe3 	strb	w3, [sp, #63]
     6b0:	f9001be4 	str	x4, [sp, #48]
     6b4:	f90087e5 	str	x5, [sp, #264]
     6b8:	f9008be6 	str	x6, [sp, #272]
     6bc:	f9008fe7 	str	x7, [sp, #280]
     6c0:	3d8023e0 	str	q0, [sp, #128]
     6c4:	3d8027e1 	str	q1, [sp, #144]
     6c8:	3d802be2 	str	q2, [sp, #160]
     6cc:	3d802fe3 	str	q3, [sp, #176]
     6d0:	3d8033e4 	str	q4, [sp, #192]
     6d4:	3d8037e5 	str	q5, [sp, #208]
     6d8:	3d803be6 	str	q6, [sp, #224]
     6dc:	3d803fe7 	str	q7, [sp, #240]
     6e0:	d0000100 	adrp	x0, 22000 <_DYNAMIC>
     6e4:	f9409800 	ldr	x0, [x0, #304]
     6e8:	f9400001 	ldr	x1, [x0]
     6ec:	f9003fe1 	str	x1, [sp, #120]
     6f0:	d2800001 	mov	x1, #0x0                   	// #0
/home/avees/optee_os-nvidia/lib/libutils/ext/trace.c:107
     6f4:	910483e0 	add	x0, sp, #0x120
     6f8:	f9002fe0 	str	x0, [sp, #88]
     6fc:	910483e0 	add	x0, sp, #0x120
     700:	f90033e0 	str	x0, [sp, #96]
     704:	910403e0 	add	x0, sp, #0x100
     708:	f90037e0 	str	x0, [sp, #104]
     70c:	128002e0 	mov	w0, #0xffffffe8            	// #-24
     710:	b90073e0 	str	w0, [sp, #112]
     714:	12800fe0 	mov	w0, #0xffffff80            	// #-128
     718:	b90077e0 	str	w0, [sp, #116]
/home/avees/optee_os-nvidia/lib/libutils/ext/trace.c:108
     71c:	f9402fe0 	ldr	x0, [sp, #88]
     720:	f9000be0 	str	x0, [sp, #16]
     724:	f94033e0 	ldr	x0, [sp, #96]
     728:	f9000fe0 	str	x0, [sp, #24]
     72c:	f94037e0 	ldr	x0, [sp, #104]
     730:	f90013e0 	str	x0, [sp, #32]
     734:	f9403be0 	ldr	x0, [sp, #112]
     738:	f90017e0 	str	x0, [sp, #40]
     73c:	910043e0 	add	x0, sp, #0x10
     740:	aa0003e5 	mov	x5, x0
     744:	f9401be4 	ldr	x4, [sp, #48]
     748:	3940ffe3 	ldrb	w3, [sp, #63]
     74c:	b94043e2 	ldr	w2, [sp, #64]
     750:	b94047e1 	ldr	w1, [sp, #68]
     754:	f94027e0 	ldr	x0, [sp, #72]
     758:	9400000c 	bl	788 <trace_vprintf>
/home/avees/optee_os-nvidia/lib/libutils/ext/trace.c:110
     75c:	d503201f 	nop
     760:	d0000100 	adrp	x0, 22000 <_DYNAMIC>
     764:	f9409800 	ldr	x0, [x0, #304]
     768:	f9403fe1 	ldr	x1, [sp, #120]
     76c:	f9400002 	ldr	x2, [x0]
     770:	eb020021 	subs	x1, x1, x2
     774:	d2800002 	mov	x2, #0x0                   	// #0
     778:	54000040 	b.eq	780 <trace_printf+0xe8>  // b.none
     77c:	97ffff71 	bl	540 <__stack_chk_fail>
     780:	a8d27bfd 	ldp	x29, x30, [sp], #288
     784:	d65f03c0 	ret

0000000000000788 <trace_vprintf>:
trace_vprintf():
/home/avees/optee_os-nvidia/lib/libutils/ext/trace.c:113
     788:	a9a87bfd 	stp	x29, x30, [sp, #-384]!
     78c:	910003fd 	mov	x29, sp
     790:	f9000bf3 	str	x19, [sp, #16]
     794:	f9002fe0 	str	x0, [sp, #88]
     798:	b90057e1 	str	w1, [sp, #84]
     79c:	b90053e2 	str	w2, [sp, #80]
     7a0:	39013fe3 	strb	w3, [sp, #79]
     7a4:	f90023e4 	str	x4, [sp, #64]
     7a8:	aa0503f3 	mov	x19, x5
     7ac:	d0000100 	adrp	x0, 22000 <_DYNAMIC>
     7b0:	f9409800 	ldr	x0, [x0, #304]
     7b4:	f9400001 	ldr	x1, [x0]
     7b8:	f900bfe1 	str	x1, [sp, #376]
     7bc:	d2800001 	mov	x1, #0x0                   	// #0
/home/avees/optee_os-nvidia/lib/libutils/ext/trace.c:115
     7c0:	f9003bff 	str	xzr, [sp, #112]
/home/avees/optee_os-nvidia/lib/libutils/ext/trace.c:118
     7c4:	39413fe0 	ldrb	w0, [sp, #79]
     7c8:	7100001f 	cmp	w0, #0x0
     7cc:	540000e0 	b.eq	7e8 <trace_vprintf+0x60>  // b.none
/home/avees/optee_os-nvidia/lib/libutils/ext/trace.c:118 (discriminator 1)
     7d0:	d0000100 	adrp	x0, 22000 <_DYNAMIC>
     7d4:	f940a400 	ldr	x0, [x0, #328]
     7d8:	b9400000 	ldr	w0, [x0]
     7dc:	b94053e1 	ldr	w1, [sp, #80]
     7e0:	6b00003f 	cmp	w1, w0
     7e4:	5400162c 	b.gt	aa8 <trace_vprintf+0x320>
/home/avees/optee_os-nvidia/lib/libutils/ext/trace.c:123
     7e8:	39413fe1 	ldrb	w1, [sp, #79]
     7ec:	b94053e0 	ldr	w0, [sp, #80]
     7f0:	97ffff6e 	bl	5a8 <trace_level_to_string>
     7f4:	12001c00 	and	w0, w0, #0xff
/home/avees/optee_os-nvidia/lib/libutils/ext/trace.c:122
     7f8:	9101e3e4 	add	x4, sp, #0x78
     7fc:	2a0003e3 	mov	w3, w0
     800:	f00000e0 	adrp	x0, 1f000 <__text_end+0x20cc>
     804:	913aa002 	add	x2, x0, #0xea8
     808:	d2802001 	mov	x1, #0x100                 	// #256
     80c:	aa0403e0 	mov	x0, x4
     810:	940000c7 	bl	b2c <snprintk>
     814:	b9006fe0 	str	w0, [sp, #108]
/home/avees/optee_os-nvidia/lib/libutils/ext/trace.c:124
     818:	b9406fe0 	ldr	w0, [sp, #108]
     81c:	7100001f 	cmp	w0, #0x0
     820:	5400148b 	b.lt	ab0 <trace_vprintf+0x328>  // b.tstop
/home/avees/optee_os-nvidia/lib/libutils/ext/trace.c:126
     824:	b9806fe0 	ldrsw	x0, [sp, #108]
     828:	f9403be1 	ldr	x1, [sp, #112]
     82c:	8b000020 	add	x0, x1, x0
     830:	f9003be0 	str	x0, [sp, #112]
/home/avees/optee_os-nvidia/lib/libutils/ext/trace.c:129
     834:	9101e3e1 	add	x1, sp, #0x78
     838:	f9403be0 	ldr	x0, [sp, #112]
     83c:	8b000024 	add	x4, x1, x0
     840:	d2802001 	mov	x1, #0x100                 	// #256
     844:	f9403be0 	ldr	x0, [sp, #112]
     848:	cb000021 	sub	x1, x1, x0
     84c:	d0000100 	adrp	x0, 22000 <_DYNAMIC>
     850:	f940ac03 	ldr	x3, [x0, #344]
     854:	f00000e0 	adrp	x0, 1f000 <__text_end+0x20cc>
     858:	913ac002 	add	x2, x0, #0xeb0
     85c:	aa0403e0 	mov	x0, x4
     860:	940000b3 	bl	b2c <snprintk>
     864:	b9006fe0 	str	w0, [sp, #108]
/home/avees/optee_os-nvidia/lib/libutils/ext/trace.c:131
     868:	b9406fe0 	ldr	w0, [sp, #108]
     86c:	7100001f 	cmp	w0, #0x0
     870:	5400124b 	b.lt	ab8 <trace_vprintf+0x330>  // b.tstop
/home/avees/optee_os-nvidia/lib/libutils/ext/trace.c:133
     874:	b9806fe0 	ldrsw	x0, [sp, #108]
     878:	f9403be1 	ldr	x1, [sp, #112]
     87c:	8b000020 	add	x0, x1, x0
     880:	f9003be0 	str	x0, [sp, #112]
/home/avees/optee_os-nvidia/lib/libutils/ext/trace.c:135
     884:	39413fe0 	ldrb	w0, [sp, #79]
     888:	7100001f 	cmp	w0, #0x0
     88c:	54000820 	b.eq	990 <trace_vprintf+0x208>  // b.none
/home/avees/optee_os-nvidia/lib/libutils/ext/trace.c:135 (discriminator 1)
     890:	b94053e0 	ldr	w0, [sp, #80]
     894:	52800341 	mov	w1, #0x1a                  	// #26
     898:	1ac02420 	lsr	w0, w1, w0
     89c:	12000000 	and	w0, w0, #0x1
     8a0:	7100001f 	cmp	w0, #0x0
     8a4:	54000760 	b.eq	990 <trace_vprintf+0x208>  // b.none
/home/avees/optee_os-nvidia/lib/libutils/ext/trace.c:137
     8a8:	9101e3e1 	add	x1, sp, #0x78
     8ac:	f9403be0 	ldr	x0, [sp, #112]
     8b0:	8b000022 	add	x2, x1, x0
     8b4:	d2802001 	mov	x1, #0x100                 	// #256
     8b8:	f9403be0 	ldr	x0, [sp, #112]
     8bc:	cb000020 	sub	x0, x1, x0
     8c0:	aa0003e1 	mov	x1, x0
     8c4:	aa0203e0 	mov	x0, x2
     8c8:	97ffff6e 	bl	680 <print_core_id>
     8cc:	b9006fe0 	str	w0, [sp, #108]
/home/avees/optee_os-nvidia/lib/libutils/ext/trace.c:138
     8d0:	b9406fe0 	ldr	w0, [sp, #108]
     8d4:	7100001f 	cmp	w0, #0x0
     8d8:	54000f4b 	b.lt	ac0 <trace_vprintf+0x338>  // b.tstop
/home/avees/optee_os-nvidia/lib/libutils/ext/trace.c:140
     8dc:	b9806fe0 	ldrsw	x0, [sp, #108]
     8e0:	f9403be1 	ldr	x1, [sp, #112]
     8e4:	8b000020 	add	x0, x1, x0
     8e8:	f9003be0 	str	x0, [sp, #112]
/home/avees/optee_os-nvidia/lib/libutils/ext/trace.c:143
     8ec:	9101e3e1 	add	x1, sp, #0x78
     8f0:	f9403be0 	ldr	x0, [sp, #112]
     8f4:	8b000022 	add	x2, x1, x0
     8f8:	d2802001 	mov	x1, #0x100                 	// #256
     8fc:	f9403be0 	ldr	x0, [sp, #112]
     900:	cb000020 	sub	x0, x1, x0
     904:	aa0003e1 	mov	x1, x0
     908:	aa0203e0 	mov	x0, x2
     90c:	97ffff40 	bl	60c <print_thread_id>
     910:	b9006fe0 	str	w0, [sp, #108]
/home/avees/optee_os-nvidia/lib/libutils/ext/trace.c:144
     914:	b9406fe0 	ldr	w0, [sp, #108]
     918:	7100001f 	cmp	w0, #0x0
     91c:	54000d6b 	b.lt	ac8 <trace_vprintf+0x340>  // b.tstop
/home/avees/optee_os-nvidia/lib/libutils/ext/trace.c:146
     920:	b9806fe0 	ldrsw	x0, [sp, #108]
     924:	f9403be1 	ldr	x1, [sp, #112]
     928:	8b000020 	add	x0, x1, x0
     92c:	f9003be0 	str	x0, [sp, #112]
/home/avees/optee_os-nvidia/lib/libutils/ext/trace.c:148
     930:	f9402fe0 	ldr	x0, [sp, #88]
     934:	f100001f 	cmp	x0, #0x0
     938:	54000440 	b.eq	9c0 <trace_vprintf+0x238>  // b.none
/home/avees/optee_os-nvidia/lib/libutils/ext/trace.c:149
     93c:	9101e3e1 	add	x1, sp, #0x78
     940:	f9403be0 	ldr	x0, [sp, #112]
     944:	8b000025 	add	x5, x1, x0
     948:	d2802001 	mov	x1, #0x100                 	// #256
     94c:	f9403be0 	ldr	x0, [sp, #112]
     950:	cb000021 	sub	x1, x1, x0
     954:	b94057e4 	ldr	w4, [sp, #84]
     958:	f9402fe3 	ldr	x3, [sp, #88]
     95c:	f00000e0 	adrp	x0, 1f000 <__text_end+0x20cc>
     960:	913ae002 	add	x2, x0, #0xeb8
     964:	aa0503e0 	mov	x0, x5
     968:	94000071 	bl	b2c <snprintk>
     96c:	b9006fe0 	str	w0, [sp, #108]
/home/avees/optee_os-nvidia/lib/libutils/ext/trace.c:151
     970:	b9406fe0 	ldr	w0, [sp, #108]
     974:	7100001f 	cmp	w0, #0x0
     978:	54000acb 	b.lt	ad0 <trace_vprintf+0x348>  // b.tstop
/home/avees/optee_os-nvidia/lib/libutils/ext/trace.c:153
     97c:	b9806fe0 	ldrsw	x0, [sp, #108]
     980:	f9403be1 	ldr	x1, [sp, #112]
     984:	8b000020 	add	x0, x1, x0
     988:	f9003be0 	str	x0, [sp, #112]
/home/avees/optee_os-nvidia/lib/libutils/ext/trace.c:148
     98c:	1400000d 	b	9c0 <trace_vprintf+0x238>
/home/avees/optee_os-nvidia/lib/libutils/ext/trace.c:157
     990:	f9403be0 	ldr	x0, [sp, #112]
     994:	f103f81f 	cmp	x0, #0xfe
     998:	54000a08 	b.hi	ad8 <trace_vprintf+0x350>  // b.pmore
/home/avees/optee_os-nvidia/lib/libutils/ext/trace.c:159
     99c:	f9403be0 	ldr	x0, [sp, #112]
     9a0:	91000401 	add	x1, x0, #0x1
     9a4:	f9003be1 	str	x1, [sp, #112]
     9a8:	9101e3e1 	add	x1, sp, #0x78
     9ac:	52800402 	mov	w2, #0x20                  	// #32
     9b0:	38206822 	strb	w2, [x1, x0]
/home/avees/optee_os-nvidia/lib/libutils/ext/trace.c:160
     9b4:	f9403be0 	ldr	x0, [sp, #112]
     9b8:	9101e3e1 	add	x1, sp, #0x78
     9bc:	3820683f 	strb	wzr, [x1, x0]
/home/avees/optee_os-nvidia/lib/libutils/ext/trace.c:163
     9c0:	9101e3e1 	add	x1, sp, #0x78
     9c4:	f9403be0 	ldr	x0, [sp, #112]
     9c8:	8b000024 	add	x4, x1, x0
     9cc:	d2802001 	mov	x1, #0x100                 	// #256
     9d0:	f9403be0 	ldr	x0, [sp, #112]
     9d4:	cb000021 	sub	x1, x1, x0
     9d8:	f9400260 	ldr	x0, [x19]
     9dc:	f90013e0 	str	x0, [sp, #32]
     9e0:	f9400660 	ldr	x0, [x19, #8]
     9e4:	f90017e0 	str	x0, [sp, #40]
     9e8:	f9400a60 	ldr	x0, [x19, #16]
     9ec:	f9001be0 	str	x0, [sp, #48]
     9f0:	f9400e60 	ldr	x0, [x19, #24]
     9f4:	f9001fe0 	str	x0, [sp, #56]
     9f8:	910083e0 	add	x0, sp, #0x20
     9fc:	aa0003e3 	mov	x3, x0
     a00:	f94023e2 	ldr	x2, [sp, #64]
     a04:	aa0403e0 	mov	x0, x4
     a08:	94000086 	bl	c20 <vsnprintk>
     a0c:	b9006fe0 	str	w0, [sp, #108]
/home/avees/optee_os-nvidia/lib/libutils/ext/trace.c:164
     a10:	b9406fe0 	ldr	w0, [sp, #108]
     a14:	7100001f 	cmp	w0, #0x0
     a18:	540000ad 	b.le	a2c <trace_vprintf+0x2a4>
/home/avees/optee_os-nvidia/lib/libutils/ext/trace.c:165
     a1c:	b9806fe0 	ldrsw	x0, [sp, #108]
     a20:	f9403be1 	ldr	x1, [sp, #112]
     a24:	8b000020 	add	x0, x1, x0
     a28:	f9003be0 	str	x0, [sp, #112]
/home/avees/optee_os-nvidia/lib/libutils/ext/trace.c:167
     a2c:	f9403be0 	ldr	x0, [sp, #112]
     a30:	f103f81f 	cmp	x0, #0xfe
     a34:	54000069 	b.ls	a40 <trace_vprintf+0x2b8>  // b.plast
/home/avees/optee_os-nvidia/lib/libutils/ext/trace.c:168
     a38:	d2801fc0 	mov	x0, #0xfe                  	// #254
     a3c:	f9003be0 	str	x0, [sp, #112]
/home/avees/optee_os-nvidia/lib/libutils/ext/trace.c:170
     a40:	f9403be0 	ldr	x0, [sp, #112]
     a44:	9101e3e1 	add	x1, sp, #0x78
     a48:	52800142 	mov	w2, #0xa                   	// #10
     a4c:	38206822 	strb	w2, [x1, x0]
/home/avees/optee_os-nvidia/lib/libutils/ext/trace.c:171
     a50:	14000004 	b	a60 <trace_vprintf+0x2d8>
/home/avees/optee_os-nvidia/lib/libutils/ext/trace.c:172
     a54:	f9403be0 	ldr	x0, [sp, #112]
     a58:	d1000400 	sub	x0, x0, #0x1
     a5c:	f9003be0 	str	x0, [sp, #112]
/home/avees/optee_os-nvidia/lib/libutils/ext/trace.c:171
     a60:	f9403be0 	ldr	x0, [sp, #112]
     a64:	f100001f 	cmp	x0, #0x0
     a68:	540000c0 	b.eq	a80 <trace_vprintf+0x2f8>  // b.none
/home/avees/optee_os-nvidia/lib/libutils/ext/trace.c:171 (discriminator 1)
     a6c:	f9403be0 	ldr	x0, [sp, #112]
     a70:	9101e3e1 	add	x1, sp, #0x78
     a74:	38606820 	ldrb	w0, [x1, x0]
     a78:	7100281f 	cmp	w0, #0xa
     a7c:	54fffec0 	b.eq	a54 <trace_vprintf+0x2cc>  // b.none
/home/avees/optee_os-nvidia/lib/libutils/ext/trace.c:173
     a80:	f9403be0 	ldr	x0, [sp, #112]
     a84:	91000400 	add	x0, x0, #0x1
     a88:	f9003be0 	str	x0, [sp, #112]
/home/avees/optee_os-nvidia/lib/libutils/ext/trace.c:174
     a8c:	f9403be0 	ldr	x0, [sp, #112]
     a90:	91000400 	add	x0, x0, #0x1
     a94:	9101e3e1 	add	x1, sp, #0x78
     a98:	3820683f 	strb	wzr, [x1, x0]
/home/avees/optee_os-nvidia/lib/libutils/ext/trace.c:176
     a9c:	9101e3e0 	add	x0, sp, #0x78
     aa0:	940008cc 	bl	2dd0 <trace_ext_puts>
     aa4:	1400000e 	b	adc <trace_vprintf+0x354>
/home/avees/optee_os-nvidia/lib/libutils/ext/trace.c:119
     aa8:	d503201f 	nop
     aac:	1400000c 	b	adc <trace_vprintf+0x354>
/home/avees/optee_os-nvidia/lib/libutils/ext/trace.c:125
     ab0:	d503201f 	nop
     ab4:	1400000a 	b	adc <trace_vprintf+0x354>
/home/avees/optee_os-nvidia/lib/libutils/ext/trace.c:132
     ab8:	d503201f 	nop
     abc:	14000008 	b	adc <trace_vprintf+0x354>
/home/avees/optee_os-nvidia/lib/libutils/ext/trace.c:139
     ac0:	d503201f 	nop
     ac4:	14000006 	b	adc <trace_vprintf+0x354>
/home/avees/optee_os-nvidia/lib/libutils/ext/trace.c:145
     ac8:	d503201f 	nop
     acc:	14000004 	b	adc <trace_vprintf+0x354>
/home/avees/optee_os-nvidia/lib/libutils/ext/trace.c:152
     ad0:	d503201f 	nop
     ad4:	14000002 	b	adc <trace_vprintf+0x354>
/home/avees/optee_os-nvidia/lib/libutils/ext/trace.c:158
     ad8:	d503201f 	nop
/home/avees/optee_os-nvidia/lib/libutils/ext/trace.c:177
     adc:	d0000100 	adrp	x0, 22000 <_DYNAMIC>
     ae0:	f9409800 	ldr	x0, [x0, #304]
     ae4:	f940bfe1 	ldr	x1, [sp, #376]
     ae8:	f9400002 	ldr	x2, [x0]
     aec:	eb020021 	subs	x1, x1, x2
     af0:	d2800002 	mov	x2, #0x0                   	// #0
     af4:	54000040 	b.eq	afc <trace_vprintf+0x374>  // b.none
     af8:	97fffe92 	bl	540 <__stack_chk_fail>
     afc:	f9400bf3 	ldr	x19, [sp, #16]
     b00:	a8d87bfd 	ldp	x29, x30, [sp], #384
     b04:	d65f03c0 	ret

0000000000000b08 <dhex_dump>:
dhex_dump():
/home/avees/optee_os-nvidia/lib/libutils/ext/trace.c:286
     b08:	d10083ff 	sub	sp, sp, #0x20
     b0c:	f9000fe0 	str	x0, [sp, #24]
     b10:	b90017e1 	str	w1, [sp, #20]
     b14:	b90013e2 	str	w2, [sp, #16]
     b18:	f90007e3 	str	x3, [sp, #8]
     b1c:	b90007e4 	str	w4, [sp, #4]
/home/avees/optee_os-nvidia/lib/libutils/ext/trace.c:287
     b20:	d503201f 	nop
     b24:	910083ff 	add	sp, sp, #0x20
     b28:	d65f03c0 	ret

0000000000000b2c <snprintk>:
snprintk():
/home/avees/optee_os-nvidia/lib/libutils/ext/snprintk.c:113
     b2c:	a9ad7bfd 	stp	x29, x30, [sp, #-304]!
     b30:	910003fd 	mov	x29, sp
     b34:	f90027e0 	str	x0, [sp, #72]
     b38:	f90023e1 	str	x1, [sp, #64]
     b3c:	f9001fe2 	str	x2, [sp, #56]
     b40:	f90087e3 	str	x3, [sp, #264]
     b44:	f9008be4 	str	x4, [sp, #272]
     b48:	f9008fe5 	str	x5, [sp, #280]
     b4c:	f90093e6 	str	x6, [sp, #288]
     b50:	f90097e7 	str	x7, [sp, #296]
     b54:	3d8023e0 	str	q0, [sp, #128]
     b58:	3d8027e1 	str	q1, [sp, #144]
     b5c:	3d802be2 	str	q2, [sp, #160]
     b60:	3d802fe3 	str	q3, [sp, #176]
     b64:	3d8033e4 	str	q4, [sp, #192]
     b68:	3d8037e5 	str	q5, [sp, #208]
     b6c:	3d803be6 	str	q6, [sp, #224]
     b70:	3d803fe7 	str	q7, [sp, #240]
     b74:	d0000100 	adrp	x0, 22000 <_DYNAMIC>
     b78:	f9409800 	ldr	x0, [x0, #304]
     b7c:	f9400001 	ldr	x1, [x0]
     b80:	f9003fe1 	str	x1, [sp, #120]
     b84:	d2800001 	mov	x1, #0x0                   	// #0
/home/avees/optee_os-nvidia/lib/libutils/ext/snprintk.c:117
     b88:	9104c3e0 	add	x0, sp, #0x130
     b8c:	f9002fe0 	str	x0, [sp, #88]
     b90:	9104c3e0 	add	x0, sp, #0x130
     b94:	f90033e0 	str	x0, [sp, #96]
     b98:	910403e0 	add	x0, sp, #0x100
     b9c:	f90037e0 	str	x0, [sp, #104]
     ba0:	128004e0 	mov	w0, #0xffffffd8            	// #-40
     ba4:	b90073e0 	str	w0, [sp, #112]
     ba8:	12800fe0 	mov	w0, #0xffffff80            	// #-128
     bac:	b90077e0 	str	w0, [sp, #116]
/home/avees/optee_os-nvidia/lib/libutils/ext/snprintk.c:118
     bb0:	f9402fe0 	ldr	x0, [sp, #88]
     bb4:	f9000be0 	str	x0, [sp, #16]
     bb8:	f94033e0 	ldr	x0, [sp, #96]
     bbc:	f9000fe0 	str	x0, [sp, #24]
     bc0:	f94037e0 	ldr	x0, [sp, #104]
     bc4:	f90013e0 	str	x0, [sp, #32]
     bc8:	f9403be0 	ldr	x0, [sp, #112]
     bcc:	f90017e0 	str	x0, [sp, #40]
     bd0:	910043e0 	add	x0, sp, #0x10
     bd4:	aa0003e3 	mov	x3, x0
     bd8:	f9401fe2 	ldr	x2, [sp, #56]
     bdc:	f94023e1 	ldr	x1, [sp, #64]
     be0:	f94027e0 	ldr	x0, [sp, #72]
     be4:	9400000f 	bl	c20 <vsnprintk>
     be8:	b90057e0 	str	w0, [sp, #84]
/home/avees/optee_os-nvidia/lib/libutils/ext/snprintk.c:121
     bec:	b94057e0 	ldr	w0, [sp, #84]
     bf0:	2a0003e1 	mov	w1, w0
/home/avees/optee_os-nvidia/lib/libutils/ext/snprintk.c:122
     bf4:	d0000100 	adrp	x0, 22000 <_DYNAMIC>
     bf8:	f9409800 	ldr	x0, [x0, #304]
     bfc:	f9403fe2 	ldr	x2, [sp, #120]
     c00:	f9400003 	ldr	x3, [x0]
     c04:	eb030042 	subs	x2, x2, x3
     c08:	d2800003 	mov	x3, #0x0                   	// #0
     c0c:	54000040 	b.eq	c14 <snprintk+0xe8>  // b.none
     c10:	97fffe4c 	bl	540 <__stack_chk_fail>
     c14:	2a0103e0 	mov	w0, w1
     c18:	a8d37bfd 	ldp	x29, x30, [sp], #304
     c1c:	d65f03c0 	ret

0000000000000c20 <vsnprintk>:
vsnprintk():
/home/avees/optee_os-nvidia/lib/libutils/ext/snprintk.c:130
     c20:	a9ba7bfd 	stp	x29, x30, [sp, #-96]!
     c24:	910003fd 	mov	x29, sp
     c28:	f9000bf3 	str	x19, [sp, #16]
     c2c:	f9002fe0 	str	x0, [sp, #88]
     c30:	f9002be1 	str	x1, [sp, #80]
     c34:	f90027e2 	str	x2, [sp, #72]
     c38:	aa0303f3 	mov	x19, x3
/home/avees/optee_os-nvidia/lib/libutils/ext/snprintk.c:131
     c3c:	f9400260 	ldr	x0, [x19]
     c40:	f90013e0 	str	x0, [sp, #32]
     c44:	f9400660 	ldr	x0, [x19, #8]
     c48:	f90017e0 	str	x0, [sp, #40]
     c4c:	f9400a60 	ldr	x0, [x19, #16]
     c50:	f9001be0 	str	x0, [sp, #48]
     c54:	f9400e60 	ldr	x0, [x19, #24]
     c58:	f9001fe0 	str	x0, [sp, #56]
     c5c:	910083e0 	add	x0, sp, #0x20
     c60:	52800024 	mov	w4, #0x1                   	// #1
     c64:	aa0003e3 	mov	x3, x0
     c68:	f94027e2 	ldr	x2, [sp, #72]
     c6c:	f9402be1 	ldr	x1, [sp, #80]
     c70:	f9402fe0 	ldr	x0, [sp, #88]
     c74:	94000004 	bl	c84 <__vsnprintf>
/home/avees/optee_os-nvidia/lib/libutils/ext/snprintk.c:132
     c78:	f9400bf3 	ldr	x19, [sp, #16]
     c7c:	a8c67bfd 	ldp	x29, x30, [sp], #96
     c80:	d65f03c0 	ret

0000000000000c84 <__vsnprintf>:
__vsnprintf():
/home/avees/optee_os-nvidia/lib/libutils/ext/snprintk.c:138
     c84:	a9b87bfd 	stp	x29, x30, [sp, #-128]!
     c88:	910003fd 	mov	x29, sp
     c8c:	f9000bf3 	str	x19, [sp, #16]
     c90:	f9002fe0 	str	x0, [sp, #88]
     c94:	f9002be1 	str	x1, [sp, #80]
     c98:	f90027e2 	str	x2, [sp, #72]
     c9c:	aa0303f3 	mov	x19, x3
     ca0:	39011fe4 	strb	w4, [sp, #71]
     ca4:	d0000100 	adrp	x0, 22000 <_DYNAMIC>
     ca8:	f9409800 	ldr	x0, [x0, #304]
     cac:	f9400001 	ldr	x1, [x0]
     cb0:	f9003fe1 	str	x1, [sp, #120]
     cb4:	d2800001 	mov	x1, #0x0                   	// #0
/home/avees/optee_os-nvidia/lib/libutils/ext/snprintk.c:142
     cb8:	f9402fe1 	ldr	x1, [sp, #88]
     cbc:	f9402be0 	ldr	x0, [sp, #80]
     cc0:	8b000020 	add	x0, x1, x0
     cc4:	f9003be0 	str	x0, [sp, #112]
/home/avees/optee_os-nvidia/lib/libutils/ext/snprintk.c:143
     cc8:	f9400260 	ldr	x0, [x19]
     ccc:	f90013e0 	str	x0, [sp, #32]
     cd0:	f9400660 	ldr	x0, [x19, #8]
     cd4:	f90017e0 	str	x0, [sp, #40]
     cd8:	f9400a60 	ldr	x0, [x19, #16]
     cdc:	f9001be0 	str	x0, [sp, #48]
     ce0:	f9400e60 	ldr	x0, [x19, #24]
     ce4:	f9001fe0 	str	x0, [sp, #56]
     ce8:	910083e1 	add	x1, sp, #0x20
     cec:	9101c3e0 	add	x0, sp, #0x70
     cf0:	39411fe5 	ldrb	w5, [sp, #71]
     cf4:	aa0103e4 	mov	x4, x1
     cf8:	f9402fe3 	ldr	x3, [sp, #88]
     cfc:	aa0003e2 	mov	x2, x0
     d00:	52800101 	mov	w1, #0x8                   	// #8
     d04:	f94027e0 	ldr	x0, [sp, #72]
     d08:	94000076 	bl	ee0 <kprintf>
     d0c:	b9006fe0 	str	w0, [sp, #108]
/home/avees/optee_os-nvidia/lib/libutils/ext/snprintk.c:144
     d10:	f9402fe0 	ldr	x0, [sp, #88]
     d14:	f100001f 	cmp	x0, #0x0
     d18:	54000240 	b.eq	d60 <__vsnprintf+0xdc>  // b.none
/home/avees/optee_os-nvidia/lib/libutils/ext/snprintk.c:144 (discriminator 1)
     d1c:	f9402be0 	ldr	x0, [sp, #80]
     d20:	f100001f 	cmp	x0, #0x0
     d24:	540001e0 	b.eq	d60 <__vsnprintf+0xdc>  // b.none
/home/avees/optee_os-nvidia/lib/libutils/ext/snprintk.c:146
     d28:	b9806fe0 	ldrsw	x0, [sp, #108]
     d2c:	f9402be1 	ldr	x1, [sp, #80]
     d30:	eb00003f 	cmp	x1, x0
     d34:	540000e8 	b.hi	d50 <__vsnprintf+0xcc>  // b.pmore
/home/avees/optee_os-nvidia/lib/libutils/ext/snprintk.c:147
     d38:	f9402be0 	ldr	x0, [sp, #80]
     d3c:	d1000400 	sub	x0, x0, #0x1
     d40:	f9402fe1 	ldr	x1, [sp, #88]
     d44:	8b000020 	add	x0, x1, x0
     d48:	3900001f 	strb	wzr, [x0]
     d4c:	14000005 	b	d60 <__vsnprintf+0xdc>
/home/avees/optee_os-nvidia/lib/libutils/ext/snprintk.c:149
     d50:	b9806fe0 	ldrsw	x0, [sp, #108]
     d54:	f9402fe1 	ldr	x1, [sp, #88]
     d58:	8b000020 	add	x0, x1, x0
     d5c:	3900001f 	strb	wzr, [x0]
/home/avees/optee_os-nvidia/lib/libutils/ext/snprintk.c:151
     d60:	b9406fe0 	ldr	w0, [sp, #108]
     d64:	2a0003e1 	mov	w1, w0
/home/avees/optee_os-nvidia/lib/libutils/ext/snprintk.c:152
     d68:	d0000100 	adrp	x0, 22000 <_DYNAMIC>
     d6c:	f9409800 	ldr	x0, [x0, #304]
     d70:	f9403fe2 	ldr	x2, [sp, #120]
     d74:	f9400003 	ldr	x3, [x0]
     d78:	eb030042 	subs	x2, x2, x3
     d7c:	d2800003 	mov	x3, #0x0                   	// #0
     d80:	54000040 	b.eq	d88 <__vsnprintf+0x104>  // b.none
     d84:	97fffdef 	bl	540 <__stack_chk_fail>
     d88:	2a0103e0 	mov	w0, w1
     d8c:	f9400bf3 	ldr	x19, [sp, #16]
     d90:	a8c87bfd 	ldp	x29, x30, [sp], #128
     d94:	d65f03c0 	ret

0000000000000d98 <__vsprintf>:
__vsprintf():
/home/avees/optee_os-nvidia/lib/libutils/ext/snprintk.c:155
     d98:	a9bb7bfd 	stp	x29, x30, [sp, #-80]!
     d9c:	910003fd 	mov	x29, sp
     da0:	f9000bf3 	str	x19, [sp, #16]
     da4:	f90027e0 	str	x0, [sp, #72]
     da8:	f90023e1 	str	x1, [sp, #64]
     dac:	aa0203f3 	mov	x19, x2
/home/avees/optee_os-nvidia/lib/libutils/ext/snprintk.c:156
     db0:	f9400260 	ldr	x0, [x19]
     db4:	f90013e0 	str	x0, [sp, #32]
     db8:	f9400660 	ldr	x0, [x19, #8]
     dbc:	f90017e0 	str	x0, [sp, #40]
     dc0:	f9400a60 	ldr	x0, [x19, #16]
     dc4:	f9001be0 	str	x0, [sp, #48]
     dc8:	f9400e60 	ldr	x0, [x19, #24]
     dcc:	f9001fe0 	str	x0, [sp, #56]
     dd0:	910083e0 	add	x0, sp, #0x20
     dd4:	52800005 	mov	w5, #0x0                   	// #0
     dd8:	aa0003e4 	mov	x4, x0
     ddc:	f94027e3 	ldr	x3, [sp, #72]
     de0:	d2800002 	mov	x2, #0x0                   	// #0
     de4:	52800101 	mov	w1, #0x8                   	// #8
     de8:	f94023e0 	ldr	x0, [sp, #64]
     dec:	9400003d 	bl	ee0 <kprintf>
/home/avees/optee_os-nvidia/lib/libutils/ext/snprintk.c:157
     df0:	f9400bf3 	ldr	x19, [sp, #16]
     df4:	a8c57bfd 	ldp	x29, x30, [sp], #80
     df8:	d65f03c0 	ret

0000000000000dfc <uuid2str>:
uuid2str():
/home/avees/optee_os-nvidia/lib/libutils/ext/snprintk.c:221
     dfc:	d101c3ff 	sub	sp, sp, #0x70
     e00:	a9037bfd 	stp	x29, x30, [sp, #48]
     e04:	9100c3fd 	add	x29, sp, #0x30
     e08:	f9002fe0 	str	x0, [sp, #88]
     e0c:	f9002be1 	str	x1, [sp, #80]
     e10:	f90027e2 	str	x2, [sp, #72]
/home/avees/optee_os-nvidia/lib/libutils/ext/snprintk.c:227
     e14:	f94027e0 	ldr	x0, [sp, #72]
     e18:	f90037e0 	str	x0, [sp, #104]
/home/avees/optee_os-nvidia/lib/libutils/ext/snprintk.c:229
     e1c:	f94037e0 	ldr	x0, [sp, #104]
     e20:	b9400001 	ldr	w1, [x0]
/home/avees/optee_os-nvidia/lib/libutils/ext/snprintk.c:231
     e24:	f94037e0 	ldr	x0, [sp, #104]
     e28:	79400800 	ldrh	w0, [x0, #4]
/home/avees/optee_os-nvidia/lib/libutils/ext/snprintk.c:229
     e2c:	2a0003e8 	mov	w8, w0
/home/avees/optee_os-nvidia/lib/libutils/ext/snprintk.c:231
     e30:	f94037e0 	ldr	x0, [sp, #104]
     e34:	79400c00 	ldrh	w0, [x0, #6]
/home/avees/optee_os-nvidia/lib/libutils/ext/snprintk.c:229
     e38:	2a0003e9 	mov	w9, w0
/home/avees/optee_os-nvidia/lib/libutils/ext/snprintk.c:232
     e3c:	f94037e0 	ldr	x0, [sp, #104]
     e40:	39402000 	ldrb	w0, [x0, #8]
/home/avees/optee_os-nvidia/lib/libutils/ext/snprintk.c:229
     e44:	2a0003ea 	mov	w10, w0
/home/avees/optee_os-nvidia/lib/libutils/ext/snprintk.c:232
     e48:	f94037e0 	ldr	x0, [sp, #104]
     e4c:	39402400 	ldrb	w0, [x0, #9]
/home/avees/optee_os-nvidia/lib/libutils/ext/snprintk.c:229
     e50:	2a0003e7 	mov	w7, w0
/home/avees/optee_os-nvidia/lib/libutils/ext/snprintk.c:233
     e54:	f94037e0 	ldr	x0, [sp, #104]
     e58:	39402800 	ldrb	w0, [x0, #10]
/home/avees/optee_os-nvidia/lib/libutils/ext/snprintk.c:229
     e5c:	2a0003e2 	mov	w2, w0
/home/avees/optee_os-nvidia/lib/libutils/ext/snprintk.c:233
     e60:	f94037e0 	ldr	x0, [sp, #104]
     e64:	39402c00 	ldrb	w0, [x0, #11]
/home/avees/optee_os-nvidia/lib/libutils/ext/snprintk.c:229
     e68:	2a0003e3 	mov	w3, w0
/home/avees/optee_os-nvidia/lib/libutils/ext/snprintk.c:234
     e6c:	f94037e0 	ldr	x0, [sp, #104]
     e70:	39403000 	ldrb	w0, [x0, #12]
/home/avees/optee_os-nvidia/lib/libutils/ext/snprintk.c:229
     e74:	2a0003e4 	mov	w4, w0
/home/avees/optee_os-nvidia/lib/libutils/ext/snprintk.c:234
     e78:	f94037e0 	ldr	x0, [sp, #104]
     e7c:	39403400 	ldrb	w0, [x0, #13]
/home/avees/optee_os-nvidia/lib/libutils/ext/snprintk.c:229
     e80:	2a0003e5 	mov	w5, w0
/home/avees/optee_os-nvidia/lib/libutils/ext/snprintk.c:235
     e84:	f94037e0 	ldr	x0, [sp, #104]
     e88:	39403800 	ldrb	w0, [x0, #14]
/home/avees/optee_os-nvidia/lib/libutils/ext/snprintk.c:229
     e8c:	2a0003e6 	mov	w6, w0
/home/avees/optee_os-nvidia/lib/libutils/ext/snprintk.c:235
     e90:	f94037e0 	ldr	x0, [sp, #104]
     e94:	39403c00 	ldrb	w0, [x0, #15]
/home/avees/optee_os-nvidia/lib/libutils/ext/snprintk.c:229
     e98:	b9002be0 	str	w0, [sp, #40]
     e9c:	b90023e6 	str	w6, [sp, #32]
     ea0:	b9001be5 	str	w5, [sp, #24]
     ea4:	b90013e4 	str	w4, [sp, #16]
     ea8:	b9000be3 	str	w3, [sp, #8]
     eac:	b90003e2 	str	w2, [sp]
     eb0:	2a0a03e6 	mov	w6, w10
     eb4:	2a0903e5 	mov	w5, w9
     eb8:	2a0803e4 	mov	w4, w8
     ebc:	2a0103e3 	mov	w3, w1
     ec0:	f00000e0 	adrp	x0, 1f000 <__text_end+0x20cc>
     ec4:	913be002 	add	x2, x0, #0xef8
     ec8:	f9402be1 	ldr	x1, [sp, #80]
     ecc:	f9402fe0 	ldr	x0, [sp, #88]
     ed0:	97ffff17 	bl	b2c <snprintk>
/home/avees/optee_os-nvidia/lib/libutils/ext/snprintk.c:236
     ed4:	a9437bfd 	ldp	x29, x30, [sp, #48]
     ed8:	9101c3ff 	add	sp, sp, #0x70
     edc:	d65f03c0 	ret

0000000000000ee0 <kprintf>:
kprintf():
/home/avees/optee_os-nvidia/lib/libutils/ext/snprintk.c:244
     ee0:	a9b37bfd 	stp	x29, x30, [sp, #-208]!
     ee4:	910003fd 	mov	x29, sp
     ee8:	f9000bf3 	str	x19, [sp, #16]
     eec:	f9001fe0 	str	x0, [sp, #56]
     ef0:	b90037e1 	str	w1, [sp, #52]
     ef4:	f90017e2 	str	x2, [sp, #40]
     ef8:	f90013e3 	str	x3, [sp, #32]
     efc:	aa0403f3 	mov	x19, x4
     f00:	3900cfe5 	strb	w5, [sp, #51]
     f04:	d0000100 	adrp	x0, 22000 <_DYNAMIC>
     f08:	f9409800 	ldr	x0, [x0, #304]
     f0c:	f9400001 	ldr	x1, [x0]
     f10:	f90067e1 	str	x1, [sp, #200]
     f14:	d2800001 	mov	x1, #0x0                   	// #0
/home/avees/optee_os-nvidia/lib/libutils/ext/snprintk.c:264
     f18:	b94037e0 	ldr	w0, [sp, #52]
     f1c:	7100201f 	cmp	w0, #0x8
     f20:	54000101 	b.ne	f40 <kprintf+0x60>  // b.any
/home/avees/optee_os-nvidia/lib/libutils/ext/snprintk.c:264 (discriminator 1)
     f24:	f94017e0 	ldr	x0, [sp, #40]
     f28:	f100001f 	cmp	x0, #0x0
     f2c:	540000a0 	b.eq	f40 <kprintf+0x60>  // b.none
/home/avees/optee_os-nvidia/lib/libutils/ext/snprintk.c:265
     f30:	f94017e0 	ldr	x0, [sp, #40]
     f34:	f9400000 	ldr	x0, [x0]
     f38:	f9004be0 	str	x0, [sp, #144]
     f3c:	14000002 	b	f44 <kprintf+0x64>
/home/avees/optee_os-nvidia/lib/libutils/ext/snprintk.c:267
     f40:	f9004bff 	str	xzr, [sp, #144]
/home/avees/optee_os-nvidia/lib/libutils/ext/snprintk.c:269
     f44:	f9003fff 	str	xzr, [sp, #120]
/home/avees/optee_os-nvidia/lib/libutils/ext/snprintk.c:270
     f48:	b9006fff 	str	wzr, [sp, #108]
/home/avees/optee_os-nvidia/lib/libutils/ext/snprintk.c:272
     f4c:	f9401fe0 	ldr	x0, [sp, #56]
     f50:	f9003be0 	str	x0, [sp, #112]
/home/avees/optee_os-nvidia/lib/libutils/ext/snprintk.c:273
     f54:	b90057ff 	str	wzr, [sp, #84]
/home/avees/optee_os-nvidia/lib/libutils/ext/snprintk.c:275
     f58:	f90047ff 	str	xzr, [sp, #136]
/home/avees/optee_os-nvidia/lib/libutils/ext/snprintk.c:281
     f5c:	1400001a 	b	fc4 <kprintf+0xe4>
/home/avees/optee_os-nvidia/lib/libutils/ext/snprintk.c:282
     f60:	b94057e0 	ldr	w0, [sp, #84]
     f64:	11000400 	add	w0, w0, #0x1
     f68:	b90057e0 	str	w0, [sp, #84]
/home/avees/optee_os-nvidia/lib/libutils/ext/snprintk.c:283
     f6c:	b94037e0 	ldr	w0, [sp, #52]
     f70:	7100201f 	cmp	w0, #0x8
     f74:	54000221 	b.ne	fb8 <kprintf+0xd8>  // b.any
/home/avees/optee_os-nvidia/lib/libutils/ext/snprintk.c:283 (discriminator 1)
     f78:	f94013e0 	ldr	x0, [sp, #32]
     f7c:	f100001f 	cmp	x0, #0x0
     f80:	540001c0 	b.eq	fb8 <kprintf+0xd8>  // b.none
/home/avees/optee_os-nvidia/lib/libutils/ext/snprintk.c:283 (discriminator 2)
     f84:	f94017e0 	ldr	x0, [sp, #40]
     f88:	f100001f 	cmp	x0, #0x0
     f8c:	540000a0 	b.eq	fa0 <kprintf+0xc0>  // b.none
/home/avees/optee_os-nvidia/lib/libutils/ext/snprintk.c:283 (discriminator 4)
     f90:	f94013e1 	ldr	x1, [sp, #32]
     f94:	f9404be0 	ldr	x0, [sp, #144]
     f98:	eb00003f 	cmp	x1, x0
     f9c:	540000e2 	b.cs	fb8 <kprintf+0xd8>  // b.hs, b.nlast
/home/avees/optee_os-nvidia/lib/libutils/ext/snprintk.c:283 (discriminator 5)
     fa0:	f94013e0 	ldr	x0, [sp, #32]
     fa4:	91000401 	add	x1, x0, #0x1
     fa8:	f90013e1 	str	x1, [sp, #32]
     fac:	f9403be1 	ldr	x1, [sp, #112]
     fb0:	39400021 	ldrb	w1, [x1]
     fb4:	39000001 	strb	w1, [x0]
/home/avees/optee_os-nvidia/lib/libutils/ext/snprintk.c:281
     fb8:	f9403be0 	ldr	x0, [sp, #112]
     fbc:	91000400 	add	x0, x0, #0x1
     fc0:	f9003be0 	str	x0, [sp, #112]
/home/avees/optee_os-nvidia/lib/libutils/ext/snprintk.c:281 (discriminator 1)
     fc4:	f9403be0 	ldr	x0, [sp, #112]
     fc8:	39400000 	ldrb	w0, [x0]
     fcc:	7100941f 	cmp	w0, #0x25
     fd0:	540000a0 	b.eq	fe4 <kprintf+0x104>  // b.none
/home/avees/optee_os-nvidia/lib/libutils/ext/snprintk.c:281 (discriminator 2)
     fd4:	f9403be0 	ldr	x0, [sp, #112]
     fd8:	39400000 	ldrb	w0, [x0]
     fdc:	7100001f 	cmp	w0, #0x0
     fe0:	54fffc01 	b.ne	f60 <kprintf+0x80>  // b.any
/home/avees/optee_os-nvidia/lib/libutils/ext/snprintk.c:285
     fe4:	f9403be0 	ldr	x0, [sp, #112]
     fe8:	39400000 	ldrb	w0, [x0]
     fec:	7100001f 	cmp	w0, #0x0
     ff0:	5400d760 	b.eq	2adc <kprintf+0x1bfc>  // b.none
/home/avees/optee_os-nvidia/lib/libutils/ext/snprintk.c:288
     ff4:	f9403be0 	ldr	x0, [sp, #112]
     ff8:	91000400 	add	x0, x0, #0x1
     ffc:	f9003be0 	str	x0, [sp, #112]
/home/avees/optee_os-nvidia/lib/libutils/ext/snprintk.c:290
    1000:	b90053ff 	str	wzr, [sp, #80]
/home/avees/optee_os-nvidia/lib/libutils/ext/snprintk.c:291
    1004:	b90067ff 	str	wzr, [sp, #100]
/home/avees/optee_os-nvidia/lib/libutils/ext/snprintk.c:292
    1008:	b9005bff 	str	wzr, [sp, #88]
/home/avees/optee_os-nvidia/lib/libutils/ext/snprintk.c:293
    100c:	12800000 	mov	w0, #0xffffffff            	// #-1
    1010:	b9005fe0 	str	w0, [sp, #92]
/home/avees/optee_os-nvidia/lib/libutils/ext/snprintk.c:294
    1014:	39011fff 	strb	wzr, [sp, #71]
/home/avees/optee_os-nvidia/lib/libutils/ext/snprintk.c:296
    1018:	f9403be0 	ldr	x0, [sp, #112]
    101c:	91000401 	add	x1, x0, #0x1
    1020:	f9003be1 	str	x1, [sp, #112]
    1024:	39400000 	ldrb	w0, [x0]
    1028:	b9004be0 	str	w0, [sp, #72]
    102c:	b9404be0 	ldr	w0, [sp, #72]
    1030:	51008000 	sub	w0, w0, #0x20
    1034:	7101681f 	cmp	w0, #0x5a
    1038:	5400b4c8 	b.hi	26d0 <kprintf+0x17f0>  // b.pmore
    103c:	d00000e1 	adrp	x1, 1f000 <__text_end+0x20cc>
    1040:	913d5021 	add	x1, x1, #0xf54
    1044:	b8605820 	ldr	w0, [x1, w0, uxtw #2]
    1048:	10000061 	adr	x1, 1054 <kprintf+0x174>
    104c:	8b20c820 	add	x0, x1, w0, sxtw #2
    1050:	d61f0000 	br	x0
/home/avees/optee_os-nvidia/lib/libutils/ext/snprintk.c:304
    1054:	39411fe0 	ldrb	w0, [sp, #71]
    1058:	7100001f 	cmp	w0, #0x0
    105c:	54fffde1 	b.ne	1018 <kprintf+0x138>  // b.any
/home/avees/optee_os-nvidia/lib/libutils/ext/snprintk.c:305
    1060:	52800400 	mov	w0, #0x20                  	// #32
    1064:	39011fe0 	strb	w0, [sp, #71]
/home/avees/optee_os-nvidia/lib/libutils/ext/snprintk.c:306
    1068:	17ffffec 	b	1018 <kprintf+0x138>
/home/avees/optee_os-nvidia/lib/libutils/ext/snprintk.c:308
    106c:	b94053e0 	ldr	w0, [sp, #80]
    1070:	32000000 	orr	w0, w0, #0x1
    1074:	b90053e0 	str	w0, [sp, #80]
/home/avees/optee_os-nvidia/lib/libutils/ext/snprintk.c:309
    1078:	17ffffe8 	b	1018 <kprintf+0x138>
/home/avees/optee_os-nvidia/lib/libutils/ext/snprintk.c:317
    107c:	b9401a61 	ldr	w1, [x19, #24]
    1080:	f9400260 	ldr	x0, [x19]
    1084:	7100003f 	cmp	w1, #0x0
    1088:	540000ab 	b.lt	109c <kprintf+0x1bc>  // b.tstop
    108c:	91002c01 	add	x1, x0, #0xb
    1090:	927df021 	and	x1, x1, #0xfffffffffffffff8
    1094:	f9000261 	str	x1, [x19]
    1098:	1400000d 	b	10cc <kprintf+0x1ec>
    109c:	11002022 	add	w2, w1, #0x8
    10a0:	b9001a62 	str	w2, [x19, #24]
    10a4:	b9401a62 	ldr	w2, [x19, #24]
    10a8:	7100005f 	cmp	w2, #0x0
    10ac:	540000ad 	b.le	10c0 <kprintf+0x1e0>
    10b0:	91002c01 	add	x1, x0, #0xb
    10b4:	927df021 	and	x1, x1, #0xfffffffffffffff8
    10b8:	f9000261 	str	x1, [x19]
    10bc:	14000004 	b	10cc <kprintf+0x1ec>
    10c0:	f9400662 	ldr	x2, [x19, #8]
    10c4:	93407c20 	sxtw	x0, w1
    10c8:	8b000040 	add	x0, x2, x0
    10cc:	b9400000 	ldr	w0, [x0]
    10d0:	b9005be0 	str	w0, [sp, #88]
    10d4:	b9405be0 	ldr	w0, [sp, #88]
    10d8:	7100001f 	cmp	w0, #0x0
    10dc:	5400004b 	b.lt	10e4 <kprintf+0x204>  // b.tstop
/home/avees/optee_os-nvidia/lib/libutils/ext/snprintk.c:318
    10e0:	17ffffce 	b	1018 <kprintf+0x138>
/home/avees/optee_os-nvidia/lib/libutils/ext/snprintk.c:319
    10e4:	b9405be0 	ldr	w0, [sp, #88]
    10e8:	4b0003e0 	neg	w0, w0
    10ec:	b9005be0 	str	w0, [sp, #88]
/home/avees/optee_os-nvidia/lib/libutils/ext/snprintk.c:322
    10f0:	b94053e0 	ldr	w0, [sp, #80]
    10f4:	321e0000 	orr	w0, w0, #0x4
    10f8:	b90053e0 	str	w0, [sp, #80]
/home/avees/optee_os-nvidia/lib/libutils/ext/snprintk.c:323
    10fc:	17ffffc7 	b	1018 <kprintf+0x138>
/home/avees/optee_os-nvidia/lib/libutils/ext/snprintk.c:325
    1100:	52800560 	mov	w0, #0x2b                  	// #43
    1104:	39011fe0 	strb	w0, [sp, #71]
/home/avees/optee_os-nvidia/lib/libutils/ext/snprintk.c:326
    1108:	17ffffc4 	b	1018 <kprintf+0x138>
/home/avees/optee_os-nvidia/lib/libutils/ext/snprintk.c:328
    110c:	f9403be0 	ldr	x0, [sp, #112]
    1110:	91000401 	add	x1, x0, #0x1
    1114:	f9003be1 	str	x1, [sp, #112]
    1118:	39400000 	ldrb	w0, [x0]
    111c:	b9004be0 	str	w0, [sp, #72]
    1120:	b9404be0 	ldr	w0, [sp, #72]
    1124:	7100a81f 	cmp	w0, #0x2a
    1128:	540003c1 	b.ne	11a0 <kprintf+0x2c0>  // b.any
/home/avees/optee_os-nvidia/lib/libutils/ext/snprintk.c:329
    112c:	b9401a61 	ldr	w1, [x19, #24]
    1130:	f9400260 	ldr	x0, [x19]
    1134:	7100003f 	cmp	w1, #0x0
    1138:	540000ab 	b.lt	114c <kprintf+0x26c>  // b.tstop
    113c:	91002c01 	add	x1, x0, #0xb
    1140:	927df021 	and	x1, x1, #0xfffffffffffffff8
    1144:	f9000261 	str	x1, [x19]
    1148:	1400000d 	b	117c <kprintf+0x29c>
    114c:	11002022 	add	w2, w1, #0x8
    1150:	b9001a62 	str	w2, [x19, #24]
    1154:	b9401a62 	ldr	w2, [x19, #24]
    1158:	7100005f 	cmp	w2, #0x0
    115c:	540000ad 	b.le	1170 <kprintf+0x290>
    1160:	91002c01 	add	x1, x0, #0xb
    1164:	927df021 	and	x1, x1, #0xfffffffffffffff8
    1168:	f9000261 	str	x1, [x19]
    116c:	14000004 	b	117c <kprintf+0x29c>
    1170:	f9400662 	ldr	x2, [x19, #8]
    1174:	93407c20 	sxtw	x0, w1
    1178:	8b000040 	add	x0, x2, x0
    117c:	b9400000 	ldr	w0, [x0]
    1180:	b9004fe0 	str	w0, [sp, #76]
/home/avees/optee_os-nvidia/lib/libutils/ext/snprintk.c:330
    1184:	b9404fe2 	ldr	w2, [sp, #76]
    1188:	b9404fe1 	ldr	w1, [sp, #76]
    118c:	12800000 	mov	w0, #0xffffffff            	// #-1
    1190:	7100005f 	cmp	w2, #0x0
    1194:	1a80a020 	csel	w0, w1, w0, ge  // ge = tcont
    1198:	b9005fe0 	str	w0, [sp, #92]
/home/avees/optee_os-nvidia/lib/libutils/ext/snprintk.c:331
    119c:	17ffff9f 	b	1018 <kprintf+0x138>
/home/avees/optee_os-nvidia/lib/libutils/ext/snprintk.c:333
    11a0:	b9004fff 	str	wzr, [sp, #76]
/home/avees/optee_os-nvidia/lib/libutils/ext/snprintk.c:334
    11a4:	14000010 	b	11e4 <kprintf+0x304>
/home/avees/optee_os-nvidia/lib/libutils/ext/snprintk.c:335
    11a8:	b9404fe1 	ldr	w1, [sp, #76]
    11ac:	2a0103e0 	mov	w0, w1
    11b0:	531e7400 	lsl	w0, w0, #2
    11b4:	0b010000 	add	w0, w0, w1
    11b8:	531f7800 	lsl	w0, w0, #1
    11bc:	2a0003e1 	mov	w1, w0
    11c0:	b9404be0 	ldr	w0, [sp, #72]
    11c4:	5100c000 	sub	w0, w0, #0x30
    11c8:	0b000020 	add	w0, w1, w0
    11cc:	b9004fe0 	str	w0, [sp, #76]
/home/avees/optee_os-nvidia/lib/libutils/ext/snprintk.c:336
    11d0:	f9403be0 	ldr	x0, [sp, #112]
    11d4:	91000401 	add	x1, x0, #0x1
    11d8:	f9003be1 	str	x1, [sp, #112]
    11dc:	39400000 	ldrb	w0, [x0]
    11e0:	b9004be0 	str	w0, [sp, #72]
/home/avees/optee_os-nvidia/lib/libutils/ext/snprintk.c:334
    11e4:	b9404be0 	ldr	w0, [sp, #72]
    11e8:	5100c000 	sub	w0, w0, #0x30
    11ec:	7100241f 	cmp	w0, #0x9
    11f0:	54fffdc9 	b.ls	11a8 <kprintf+0x2c8>  // b.plast
/home/avees/optee_os-nvidia/lib/libutils/ext/snprintk.c:338
    11f4:	b9404fe2 	ldr	w2, [sp, #76]
    11f8:	b9404fe1 	ldr	w1, [sp, #76]
    11fc:	12800000 	mov	w0, #0xffffffff            	// #-1
    1200:	7100005f 	cmp	w2, #0x0
    1204:	1a80a020 	csel	w0, w1, w0, ge  // ge = tcont
    1208:	b9005fe0 	str	w0, [sp, #92]
/home/avees/optee_os-nvidia/lib/libutils/ext/snprintk.c:339
    120c:	17ffff88 	b	102c <kprintf+0x14c>
/home/avees/optee_os-nvidia/lib/libutils/ext/snprintk.c:346
    1210:	b94053e0 	ldr	w0, [sp, #80]
    1214:	32160000 	orr	w0, w0, #0x400
    1218:	b90053e0 	str	w0, [sp, #80]
/home/avees/optee_os-nvidia/lib/libutils/ext/snprintk.c:347
    121c:	17ffff7f 	b	1018 <kprintf+0x138>
/home/avees/optee_os-nvidia/lib/libutils/ext/snprintk.c:350
    1220:	b9004fff 	str	wzr, [sp, #76]
/home/avees/optee_os-nvidia/lib/libutils/ext/snprintk.c:352 (discriminator 1)
    1224:	b9404fe1 	ldr	w1, [sp, #76]
    1228:	2a0103e0 	mov	w0, w1
    122c:	531e7400 	lsl	w0, w0, #2
    1230:	0b010000 	add	w0, w0, w1
    1234:	531f7800 	lsl	w0, w0, #1
    1238:	2a0003e1 	mov	w1, w0
    123c:	b9404be0 	ldr	w0, [sp, #72]
    1240:	5100c000 	sub	w0, w0, #0x30
    1244:	0b000020 	add	w0, w1, w0
    1248:	b9004fe0 	str	w0, [sp, #76]
/home/avees/optee_os-nvidia/lib/libutils/ext/snprintk.c:353 (discriminator 1)
    124c:	f9403be0 	ldr	x0, [sp, #112]
    1250:	91000401 	add	x1, x0, #0x1
    1254:	f9003be1 	str	x1, [sp, #112]
    1258:	39400000 	ldrb	w0, [x0]
    125c:	b9004be0 	str	w0, [sp, #72]
/home/avees/optee_os-nvidia/lib/libutils/ext/snprintk.c:354 (discriminator 1)
    1260:	b9404be0 	ldr	w0, [sp, #72]
    1264:	5100c000 	sub	w0, w0, #0x30
    1268:	7100241f 	cmp	w0, #0x9
    126c:	54fffdc9 	b.ls	1224 <kprintf+0x344>  // b.plast
/home/avees/optee_os-nvidia/lib/libutils/ext/snprintk.c:355
    1270:	b9404fe0 	ldr	w0, [sp, #76]
    1274:	b9005be0 	str	w0, [sp, #88]
/home/avees/optee_os-nvidia/lib/libutils/ext/snprintk.c:356
    1278:	17ffff6d 	b	102c <kprintf+0x14c>
/home/avees/optee_os-nvidia/lib/libutils/ext/snprintk.c:358
    127c:	b94053e0 	ldr	w0, [sp, #80]
    1280:	321a0000 	orr	w0, w0, #0x40
    1284:	b90053e0 	str	w0, [sp, #80]
/home/avees/optee_os-nvidia/lib/libutils/ext/snprintk.c:359
    1288:	17ffff64 	b	1018 <kprintf+0x138>
/home/avees/optee_os-nvidia/lib/libutils/ext/snprintk.c:361
    128c:	b94053e0 	ldr	w0, [sp, #80]
    1290:	32190000 	orr	w0, w0, #0x80
    1294:	b90053e0 	str	w0, [sp, #80]
/home/avees/optee_os-nvidia/lib/libutils/ext/snprintk.c:362
    1298:	17ffff60 	b	1018 <kprintf+0x138>
/home/avees/optee_os-nvidia/lib/libutils/ext/snprintk.c:364
    129c:	f9403be0 	ldr	x0, [sp, #112]
    12a0:	39400000 	ldrb	w0, [x0]
    12a4:	7101b01f 	cmp	w0, #0x6c
    12a8:	54000101 	b.ne	12c8 <kprintf+0x3e8>  // b.any
/home/avees/optee_os-nvidia/lib/libutils/ext/snprintk.c:365
    12ac:	f9403be0 	ldr	x0, [sp, #112]
    12b0:	91000400 	add	x0, x0, #0x1
    12b4:	f9003be0 	str	x0, [sp, #112]
/home/avees/optee_os-nvidia/lib/libutils/ext/snprintk.c:366
    12b8:	b94053e0 	ldr	w0, [sp, #80]
    12bc:	321b0000 	orr	w0, w0, #0x20
    12c0:	b90053e0 	str	w0, [sp, #80]
    12c4:	17ffff55 	b	1018 <kprintf+0x138>
/home/avees/optee_os-nvidia/lib/libutils/ext/snprintk.c:368
    12c8:	b94053e0 	ldr	w0, [sp, #80]
    12cc:	321c0000 	orr	w0, w0, #0x10
    12d0:	b90053e0 	str	w0, [sp, #80]
/home/avees/optee_os-nvidia/lib/libutils/ext/snprintk.c:370
    12d4:	17ffff51 	b	1018 <kprintf+0x138>
/home/avees/optee_os-nvidia/lib/libutils/ext/snprintk.c:372
    12d8:	b94053e0 	ldr	w0, [sp, #80]
    12dc:	321b0000 	orr	w0, w0, #0x20
    12e0:	b90053e0 	str	w0, [sp, #80]
/home/avees/optee_os-nvidia/lib/libutils/ext/snprintk.c:373
    12e4:	17ffff4d 	b	1018 <kprintf+0x138>
/home/avees/optee_os-nvidia/lib/libutils/ext/snprintk.c:375
    12e8:	b94053e0 	ldr	w0, [sp, #80]
    12ec:	32180000 	orr	w0, w0, #0x100
    12f0:	b90053e0 	str	w0, [sp, #80]
/home/avees/optee_os-nvidia/lib/libutils/ext/snprintk.c:376
    12f4:	17ffff49 	b	1018 <kprintf+0x138>
/home/avees/optee_os-nvidia/lib/libutils/ext/snprintk.c:378
    12f8:	b94053e0 	ldr	w0, [sp, #80]
    12fc:	32170000 	orr	w0, w0, #0x200
    1300:	b90053e0 	str	w0, [sp, #80]
/home/avees/optee_os-nvidia/lib/libutils/ext/snprintk.c:379
    1304:	17ffff45 	b	1018 <kprintf+0x138>
/home/avees/optee_os-nvidia/lib/libutils/ext/snprintk.c:381
    1308:	b9401a61 	ldr	w1, [x19, #24]
    130c:	f9400260 	ldr	x0, [x19]
    1310:	7100003f 	cmp	w1, #0x0
    1314:	540000ab 	b.lt	1328 <kprintf+0x448>  // b.tstop
    1318:	91002c01 	add	x1, x0, #0xb
    131c:	927df021 	and	x1, x1, #0xfffffffffffffff8
    1320:	f9000261 	str	x1, [x19]
    1324:	1400000d 	b	1358 <kprintf+0x478>
    1328:	11002022 	add	w2, w1, #0x8
    132c:	b9001a62 	str	w2, [x19, #24]
    1330:	b9401a62 	ldr	w2, [x19, #24]
    1334:	7100005f 	cmp	w2, #0x0
    1338:	540000ad 	b.le	134c <kprintf+0x46c>
    133c:	91002c01 	add	x1, x0, #0xb
    1340:	927df021 	and	x1, x1, #0xfffffffffffffff8
    1344:	f9000261 	str	x1, [x19]
    1348:	14000004 	b	1358 <kprintf+0x478>
    134c:	f9400662 	ldr	x2, [x19, #8]
    1350:	93407c20 	sxtw	x0, w1
    1354:	8b000040 	add	x0, x2, x0
    1358:	b9400001 	ldr	w1, [x0]
    135c:	910283e0 	add	x0, sp, #0xa0
    1360:	f9003fe0 	str	x0, [sp, #120]
    1364:	12001c21 	and	w1, w1, #0xff
    1368:	f9403fe0 	ldr	x0, [sp, #120]
    136c:	39000001 	strb	w1, [x0]
/home/avees/optee_os-nvidia/lib/libutils/ext/snprintk.c:382
    1370:	52800020 	mov	w0, #0x1                   	// #1
    1374:	b9006fe0 	str	w0, [sp, #108]
/home/avees/optee_os-nvidia/lib/libutils/ext/snprintk.c:383
    1378:	39011fff 	strb	wzr, [sp, #71]
/home/avees/optee_os-nvidia/lib/libutils/ext/snprintk.c:384
    137c:	140004e2 	b	2704 <kprintf+0x1824>
/home/avees/optee_os-nvidia/lib/libutils/ext/snprintk.c:386
    1380:	b94053e0 	ldr	w0, [sp, #80]
    1384:	321c0000 	orr	w0, w0, #0x10
    1388:	b90053e0 	str	w0, [sp, #80]
/home/avees/optee_os-nvidia/lib/libutils/ext/snprintk.c:390
    138c:	b94053e0 	ldr	w0, [sp, #80]
    1390:	12190000 	and	w0, w0, #0x80
    1394:	7100001f 	cmp	w0, #0x0
    1398:	540002e0 	b.eq	13f4 <kprintf+0x514>  // b.none
    139c:	b9401a61 	ldr	w1, [x19, #24]
    13a0:	f9400260 	ldr	x0, [x19]
    13a4:	7100003f 	cmp	w1, #0x0
    13a8:	540000ab 	b.lt	13bc <kprintf+0x4dc>  // b.tstop
    13ac:	91003c01 	add	x1, x0, #0xf
    13b0:	927df021 	and	x1, x1, #0xfffffffffffffff8
    13b4:	f9000261 	str	x1, [x19]
    13b8:	1400000d 	b	13ec <kprintf+0x50c>
    13bc:	11002022 	add	w2, w1, #0x8
    13c0:	b9001a62 	str	w2, [x19, #24]
    13c4:	b9401a62 	ldr	w2, [x19, #24]
    13c8:	7100005f 	cmp	w2, #0x0
    13cc:	540000ad 	b.le	13e0 <kprintf+0x500>
    13d0:	91003c01 	add	x1, x0, #0xf
    13d4:	927df021 	and	x1, x1, #0xfffffffffffffff8
    13d8:	f9000261 	str	x1, [x19]
    13dc:	14000004 	b	13ec <kprintf+0x50c>
    13e0:	f9400662 	ldr	x2, [x19, #8]
    13e4:	93407c20 	sxtw	x0, w1
    13e8:	8b000040 	add	x0, x2, x0
    13ec:	f9400000 	ldr	x0, [x0]
    13f0:	1400009b 	b	165c <kprintf+0x77c>
/home/avees/optee_os-nvidia/lib/libutils/ext/snprintk.c:390 (discriminator 2)
    13f4:	b94053e0 	ldr	w0, [sp, #80]
    13f8:	12180000 	and	w0, w0, #0x100
    13fc:	7100001f 	cmp	w0, #0x0
    1400:	540002e0 	b.eq	145c <kprintf+0x57c>  // b.none
/home/avees/optee_os-nvidia/lib/libutils/ext/snprintk.c:390
    1404:	b9401a61 	ldr	w1, [x19, #24]
    1408:	f9400260 	ldr	x0, [x19]
    140c:	7100003f 	cmp	w1, #0x0
    1410:	540000ab 	b.lt	1424 <kprintf+0x544>  // b.tstop
    1414:	91003c01 	add	x1, x0, #0xf
    1418:	927df021 	and	x1, x1, #0xfffffffffffffff8
    141c:	f9000261 	str	x1, [x19]
    1420:	1400000d 	b	1454 <kprintf+0x574>
    1424:	11002022 	add	w2, w1, #0x8
    1428:	b9001a62 	str	w2, [x19, #24]
    142c:	b9401a62 	ldr	w2, [x19, #24]
    1430:	7100005f 	cmp	w2, #0x0
    1434:	540000ad 	b.le	1448 <kprintf+0x568>
    1438:	91003c01 	add	x1, x0, #0xf
    143c:	927df021 	and	x1, x1, #0xfffffffffffffff8
    1440:	f9000261 	str	x1, [x19]
    1444:	14000004 	b	1454 <kprintf+0x574>
    1448:	f9400662 	ldr	x2, [x19, #8]
    144c:	93407c20 	sxtw	x0, w1
    1450:	8b000040 	add	x0, x2, x0
    1454:	f9400000 	ldr	x0, [x0]
    1458:	14000081 	b	165c <kprintf+0x77c>
/home/avees/optee_os-nvidia/lib/libutils/ext/snprintk.c:390 (discriminator 5)
    145c:	b94053e0 	ldr	w0, [sp, #80]
    1460:	12170000 	and	w0, w0, #0x200
    1464:	7100001f 	cmp	w0, #0x0
    1468:	540002e0 	b.eq	14c4 <kprintf+0x5e4>  // b.none
/home/avees/optee_os-nvidia/lib/libutils/ext/snprintk.c:390
    146c:	b9401a61 	ldr	w1, [x19, #24]
    1470:	f9400260 	ldr	x0, [x19]
    1474:	7100003f 	cmp	w1, #0x0
    1478:	540000ab 	b.lt	148c <kprintf+0x5ac>  // b.tstop
    147c:	91003c01 	add	x1, x0, #0xf
    1480:	927df021 	and	x1, x1, #0xfffffffffffffff8
    1484:	f9000261 	str	x1, [x19]
    1488:	1400000d 	b	14bc <kprintf+0x5dc>
    148c:	11002022 	add	w2, w1, #0x8
    1490:	b9001a62 	str	w2, [x19, #24]
    1494:	b9401a62 	ldr	w2, [x19, #24]
    1498:	7100005f 	cmp	w2, #0x0
    149c:	540000ad 	b.le	14b0 <kprintf+0x5d0>
    14a0:	91003c01 	add	x1, x0, #0xf
    14a4:	927df021 	and	x1, x1, #0xfffffffffffffff8
    14a8:	f9000261 	str	x1, [x19]
    14ac:	14000004 	b	14bc <kprintf+0x5dc>
    14b0:	f9400662 	ldr	x2, [x19, #8]
    14b4:	93407c20 	sxtw	x0, w1
    14b8:	8b000040 	add	x0, x2, x0
    14bc:	f9400000 	ldr	x0, [x0]
    14c0:	14000067 	b	165c <kprintf+0x77c>
/home/avees/optee_os-nvidia/lib/libutils/ext/snprintk.c:390 (discriminator 8)
    14c4:	b94053e0 	ldr	w0, [sp, #80]
    14c8:	121b0000 	and	w0, w0, #0x20
    14cc:	7100001f 	cmp	w0, #0x0
    14d0:	540002e0 	b.eq	152c <kprintf+0x64c>  // b.none
/home/avees/optee_os-nvidia/lib/libutils/ext/snprintk.c:390
    14d4:	b9401a61 	ldr	w1, [x19, #24]
    14d8:	f9400260 	ldr	x0, [x19]
    14dc:	7100003f 	cmp	w1, #0x0
    14e0:	540000ab 	b.lt	14f4 <kprintf+0x614>  // b.tstop
    14e4:	91003c01 	add	x1, x0, #0xf
    14e8:	927df021 	and	x1, x1, #0xfffffffffffffff8
    14ec:	f9000261 	str	x1, [x19]
    14f0:	1400000d 	b	1524 <kprintf+0x644>
    14f4:	11002022 	add	w2, w1, #0x8
    14f8:	b9001a62 	str	w2, [x19, #24]
    14fc:	b9401a62 	ldr	w2, [x19, #24]
    1500:	7100005f 	cmp	w2, #0x0
    1504:	540000ad 	b.le	1518 <kprintf+0x638>
    1508:	91003c01 	add	x1, x0, #0xf
    150c:	927df021 	and	x1, x1, #0xfffffffffffffff8
    1510:	f9000261 	str	x1, [x19]
    1514:	14000004 	b	1524 <kprintf+0x644>
    1518:	f9400662 	ldr	x2, [x19, #8]
    151c:	93407c20 	sxtw	x0, w1
    1520:	8b000040 	add	x0, x2, x0
    1524:	f9400000 	ldr	x0, [x0]
    1528:	1400004d 	b	165c <kprintf+0x77c>
/home/avees/optee_os-nvidia/lib/libutils/ext/snprintk.c:390 (discriminator 11)
    152c:	b94053e0 	ldr	w0, [sp, #80]
    1530:	121c0000 	and	w0, w0, #0x10
    1534:	7100001f 	cmp	w0, #0x0
    1538:	540002e0 	b.eq	1594 <kprintf+0x6b4>  // b.none
/home/avees/optee_os-nvidia/lib/libutils/ext/snprintk.c:390
    153c:	b9401a61 	ldr	w1, [x19, #24]
    1540:	f9400260 	ldr	x0, [x19]
    1544:	7100003f 	cmp	w1, #0x0
    1548:	540000ab 	b.lt	155c <kprintf+0x67c>  // b.tstop
    154c:	91003c01 	add	x1, x0, #0xf
    1550:	927df021 	and	x1, x1, #0xfffffffffffffff8
    1554:	f9000261 	str	x1, [x19]
    1558:	1400000d 	b	158c <kprintf+0x6ac>
    155c:	11002022 	add	w2, w1, #0x8
    1560:	b9001a62 	str	w2, [x19, #24]
    1564:	b9401a62 	ldr	w2, [x19, #24]
    1568:	7100005f 	cmp	w2, #0x0
    156c:	540000ad 	b.le	1580 <kprintf+0x6a0>
    1570:	91003c01 	add	x1, x0, #0xf
    1574:	927df021 	and	x1, x1, #0xfffffffffffffff8
    1578:	f9000261 	str	x1, [x19]
    157c:	14000004 	b	158c <kprintf+0x6ac>
    1580:	f9400662 	ldr	x2, [x19, #8]
    1584:	93407c20 	sxtw	x0, w1
    1588:	8b000040 	add	x0, x2, x0
    158c:	f9400000 	ldr	x0, [x0]
    1590:	14000033 	b	165c <kprintf+0x77c>
/home/avees/optee_os-nvidia/lib/libutils/ext/snprintk.c:390 (discriminator 14)
    1594:	b94053e0 	ldr	w0, [sp, #80]
    1598:	121a0000 	and	w0, w0, #0x40
    159c:	7100001f 	cmp	w0, #0x0
    15a0:	54000320 	b.eq	1604 <kprintf+0x724>  // b.none
/home/avees/optee_os-nvidia/lib/libutils/ext/snprintk.c:390
    15a4:	b9401a61 	ldr	w1, [x19, #24]
    15a8:	f9400260 	ldr	x0, [x19]
    15ac:	7100003f 	cmp	w1, #0x0
    15b0:	540000ab 	b.lt	15c4 <kprintf+0x6e4>  // b.tstop
    15b4:	91002c01 	add	x1, x0, #0xb
    15b8:	927df021 	and	x1, x1, #0xfffffffffffffff8
    15bc:	f9000261 	str	x1, [x19]
    15c0:	1400000d 	b	15f4 <kprintf+0x714>
    15c4:	11002022 	add	w2, w1, #0x8
    15c8:	b9001a62 	str	w2, [x19, #24]
    15cc:	b9401a62 	ldr	w2, [x19, #24]
    15d0:	7100005f 	cmp	w2, #0x0
    15d4:	540000ad 	b.le	15e8 <kprintf+0x708>
    15d8:	91002c01 	add	x1, x0, #0xb
    15dc:	927df021 	and	x1, x1, #0xfffffffffffffff8
    15e0:	f9000261 	str	x1, [x19]
    15e4:	14000004 	b	15f4 <kprintf+0x714>
    15e8:	f9400662 	ldr	x2, [x19, #8]
    15ec:	93407c20 	sxtw	x0, w1
    15f0:	8b000040 	add	x0, x2, x0
    15f4:	b9400000 	ldr	w0, [x0]
    15f8:	13003c00 	sxth	w0, w0
    15fc:	93403c00 	sxth	x0, w0
    1600:	14000017 	b	165c <kprintf+0x77c>
    1604:	b9401a61 	ldr	w1, [x19, #24]
    1608:	f9400260 	ldr	x0, [x19]
    160c:	7100003f 	cmp	w1, #0x0
    1610:	540000ab 	b.lt	1624 <kprintf+0x744>  // b.tstop
    1614:	91002c01 	add	x1, x0, #0xb
    1618:	927df021 	and	x1, x1, #0xfffffffffffffff8
    161c:	f9000261 	str	x1, [x19]
    1620:	1400000d 	b	1654 <kprintf+0x774>
    1624:	11002022 	add	w2, w1, #0x8
    1628:	b9001a62 	str	w2, [x19, #24]
    162c:	b9401a62 	ldr	w2, [x19, #24]
    1630:	7100005f 	cmp	w2, #0x0
    1634:	540000ad 	b.le	1648 <kprintf+0x768>
    1638:	91002c01 	add	x1, x0, #0xb
    163c:	927df021 	and	x1, x1, #0xfffffffffffffff8
    1640:	f9000261 	str	x1, [x19]
    1644:	14000004 	b	1654 <kprintf+0x774>
    1648:	f9400662 	ldr	x2, [x19, #8]
    164c:	93407c20 	sxtw	x0, w1
    1650:	8b000040 	add	x0, x2, x0
    1654:	b9400000 	ldr	w0, [x0]
    1658:	93407c00 	sxtw	x0, w0
/home/avees/optee_os-nvidia/lib/libutils/ext/snprintk.c:390 (discriminator 24)
    165c:	f90043e0 	str	x0, [sp, #128]
/home/avees/optee_os-nvidia/lib/libutils/ext/snprintk.c:391 (discriminator 24)
    1660:	f94043e0 	ldr	x0, [sp, #128]
    1664:	f100001f 	cmp	x0, #0x0
    1668:	540000ca 	b.ge	1680 <kprintf+0x7a0>  // b.tcont
/home/avees/optee_os-nvidia/lib/libutils/ext/snprintk.c:392
    166c:	f94043e0 	ldr	x0, [sp, #128]
    1670:	cb0003e0 	neg	x0, x0
    1674:	f90043e0 	str	x0, [sp, #128]
/home/avees/optee_os-nvidia/lib/libutils/ext/snprintk.c:393
    1678:	528005a0 	mov	w0, #0x2d                  	// #45
    167c:	39011fe0 	strb	w0, [sp, #71]
/home/avees/optee_os-nvidia/lib/libutils/ext/snprintk.c:395
    1680:	52800020 	mov	w0, #0x1                   	// #1
    1684:	b90063e0 	str	w0, [sp, #96]
/home/avees/optee_os-nvidia/lib/libutils/ext/snprintk.c:396
    1688:	1400038b 	b	24b4 <kprintf+0x15d4>
/home/avees/optee_os-nvidia/lib/libutils/ext/snprintk.c:398
    168c:	b94053e0 	ldr	w0, [sp, #80]
    1690:	12190000 	and	w0, w0, #0x80
    1694:	7100001f 	cmp	w0, #0x0
    1698:	54000320 	b.eq	16fc <kprintf+0x81c>  // b.none
/home/avees/optee_os-nvidia/lib/libutils/ext/snprintk.c:399
    169c:	b9401a61 	ldr	w1, [x19, #24]
    16a0:	f9400260 	ldr	x0, [x19]
    16a4:	7100003f 	cmp	w1, #0x0
    16a8:	540000ab 	b.lt	16bc <kprintf+0x7dc>  // b.tstop
    16ac:	91003c01 	add	x1, x0, #0xf
    16b0:	927df021 	and	x1, x1, #0xfffffffffffffff8
    16b4:	f9000261 	str	x1, [x19]
    16b8:	1400000d 	b	16ec <kprintf+0x80c>
    16bc:	11002022 	add	w2, w1, #0x8
    16c0:	b9001a62 	str	w2, [x19, #24]
    16c4:	b9401a62 	ldr	w2, [x19, #24]
    16c8:	7100005f 	cmp	w2, #0x0
    16cc:	540000ad 	b.le	16e0 <kprintf+0x800>
    16d0:	91003c01 	add	x1, x0, #0xf
    16d4:	927df021 	and	x1, x1, #0xfffffffffffffff8
    16d8:	f9000261 	str	x1, [x19]
    16dc:	14000004 	b	16ec <kprintf+0x80c>
    16e0:	f9400662 	ldr	x2, [x19, #8]
    16e4:	93407c20 	sxtw	x0, w1
    16e8:	8b000040 	add	x0, x2, x0
    16ec:	f9400000 	ldr	x0, [x0]
    16f0:	b98057e1 	ldrsw	x1, [sp, #84]
    16f4:	f9000001 	str	x1, [x0]
/home/avees/optee_os-nvidia/lib/libutils/ext/snprintk.c:412
    16f8:	140004f8 	b	2ad8 <kprintf+0x1bf8>
/home/avees/optee_os-nvidia/lib/libutils/ext/snprintk.c:400
    16fc:	b94053e0 	ldr	w0, [sp, #80]
    1700:	12180000 	and	w0, w0, #0x100
    1704:	7100001f 	cmp	w0, #0x0
    1708:	54000320 	b.eq	176c <kprintf+0x88c>  // b.none
/home/avees/optee_os-nvidia/lib/libutils/ext/snprintk.c:401
    170c:	b9401a61 	ldr	w1, [x19, #24]
    1710:	f9400260 	ldr	x0, [x19]
    1714:	7100003f 	cmp	w1, #0x0
    1718:	540000ab 	b.lt	172c <kprintf+0x84c>  // b.tstop
    171c:	91003c01 	add	x1, x0, #0xf
    1720:	927df021 	and	x1, x1, #0xfffffffffffffff8
    1724:	f9000261 	str	x1, [x19]
    1728:	1400000d 	b	175c <kprintf+0x87c>
    172c:	11002022 	add	w2, w1, #0x8
    1730:	b9001a62 	str	w2, [x19, #24]
    1734:	b9401a62 	ldr	w2, [x19, #24]
    1738:	7100005f 	cmp	w2, #0x0
    173c:	540000ad 	b.le	1750 <kprintf+0x870>
    1740:	91003c01 	add	x1, x0, #0xf
    1744:	927df021 	and	x1, x1, #0xfffffffffffffff8
    1748:	f9000261 	str	x1, [x19]
    174c:	14000004 	b	175c <kprintf+0x87c>
    1750:	f9400662 	ldr	x2, [x19, #8]
    1754:	93407c20 	sxtw	x0, w1
    1758:	8b000040 	add	x0, x2, x0
    175c:	f9400000 	ldr	x0, [x0]
    1760:	b98057e1 	ldrsw	x1, [sp, #84]
    1764:	f9000001 	str	x1, [x0]
/home/avees/optee_os-nvidia/lib/libutils/ext/snprintk.c:412
    1768:	140004dc 	b	2ad8 <kprintf+0x1bf8>
/home/avees/optee_os-nvidia/lib/libutils/ext/snprintk.c:402
    176c:	b94053e0 	ldr	w0, [sp, #80]
    1770:	12170000 	and	w0, w0, #0x200
    1774:	7100001f 	cmp	w0, #0x0
    1778:	54000320 	b.eq	17dc <kprintf+0x8fc>  // b.none
/home/avees/optee_os-nvidia/lib/libutils/ext/snprintk.c:403
    177c:	b9401a61 	ldr	w1, [x19, #24]
    1780:	f9400260 	ldr	x0, [x19]
    1784:	7100003f 	cmp	w1, #0x0
    1788:	540000ab 	b.lt	179c <kprintf+0x8bc>  // b.tstop
    178c:	91003c01 	add	x1, x0, #0xf
    1790:	927df021 	and	x1, x1, #0xfffffffffffffff8
    1794:	f9000261 	str	x1, [x19]
    1798:	1400000d 	b	17cc <kprintf+0x8ec>
    179c:	11002022 	add	w2, w1, #0x8
    17a0:	b9001a62 	str	w2, [x19, #24]
    17a4:	b9401a62 	ldr	w2, [x19, #24]
    17a8:	7100005f 	cmp	w2, #0x0
    17ac:	540000ad 	b.le	17c0 <kprintf+0x8e0>
    17b0:	91003c01 	add	x1, x0, #0xf
    17b4:	927df021 	and	x1, x1, #0xfffffffffffffff8
    17b8:	f9000261 	str	x1, [x19]
    17bc:	14000004 	b	17cc <kprintf+0x8ec>
    17c0:	f9400662 	ldr	x2, [x19, #8]
    17c4:	93407c20 	sxtw	x0, w1
    17c8:	8b000040 	add	x0, x2, x0
    17cc:	f9400000 	ldr	x0, [x0]
    17d0:	b98057e1 	ldrsw	x1, [sp, #84]
    17d4:	f9000001 	str	x1, [x0]
/home/avees/optee_os-nvidia/lib/libutils/ext/snprintk.c:412
    17d8:	140004c0 	b	2ad8 <kprintf+0x1bf8>
/home/avees/optee_os-nvidia/lib/libutils/ext/snprintk.c:404
    17dc:	b94053e0 	ldr	w0, [sp, #80]
    17e0:	121b0000 	and	w0, w0, #0x20
    17e4:	7100001f 	cmp	w0, #0x0
    17e8:	54000320 	b.eq	184c <kprintf+0x96c>  // b.none
/home/avees/optee_os-nvidia/lib/libutils/ext/snprintk.c:405
    17ec:	b9401a61 	ldr	w1, [x19, #24]
    17f0:	f9400260 	ldr	x0, [x19]
    17f4:	7100003f 	cmp	w1, #0x0
    17f8:	540000ab 	b.lt	180c <kprintf+0x92c>  // b.tstop
    17fc:	91003c01 	add	x1, x0, #0xf
    1800:	927df021 	and	x1, x1, #0xfffffffffffffff8
    1804:	f9000261 	str	x1, [x19]
    1808:	1400000d 	b	183c <kprintf+0x95c>
    180c:	11002022 	add	w2, w1, #0x8
    1810:	b9001a62 	str	w2, [x19, #24]
    1814:	b9401a62 	ldr	w2, [x19, #24]
    1818:	7100005f 	cmp	w2, #0x0
    181c:	540000ad 	b.le	1830 <kprintf+0x950>
    1820:	91003c01 	add	x1, x0, #0xf
    1824:	927df021 	and	x1, x1, #0xfffffffffffffff8
    1828:	f9000261 	str	x1, [x19]
    182c:	14000004 	b	183c <kprintf+0x95c>
    1830:	f9400662 	ldr	x2, [x19, #8]
    1834:	93407c20 	sxtw	x0, w1
    1838:	8b000040 	add	x0, x2, x0
    183c:	f9400000 	ldr	x0, [x0]
    1840:	b98057e1 	ldrsw	x1, [sp, #84]
    1844:	f9000001 	str	x1, [x0]
/home/avees/optee_os-nvidia/lib/libutils/ext/snprintk.c:412
    1848:	140004a4 	b	2ad8 <kprintf+0x1bf8>
/home/avees/optee_os-nvidia/lib/libutils/ext/snprintk.c:406
    184c:	b94053e0 	ldr	w0, [sp, #80]
    1850:	121c0000 	and	w0, w0, #0x10
    1854:	7100001f 	cmp	w0, #0x0
    1858:	54000320 	b.eq	18bc <kprintf+0x9dc>  // b.none
/home/avees/optee_os-nvidia/lib/libutils/ext/snprintk.c:407
    185c:	b9401a61 	ldr	w1, [x19, #24]
    1860:	f9400260 	ldr	x0, [x19]
    1864:	7100003f 	cmp	w1, #0x0
    1868:	540000ab 	b.lt	187c <kprintf+0x99c>  // b.tstop
    186c:	91003c01 	add	x1, x0, #0xf
    1870:	927df021 	and	x1, x1, #0xfffffffffffffff8
    1874:	f9000261 	str	x1, [x19]
    1878:	1400000d 	b	18ac <kprintf+0x9cc>
    187c:	11002022 	add	w2, w1, #0x8
    1880:	b9001a62 	str	w2, [x19, #24]
    1884:	b9401a62 	ldr	w2, [x19, #24]
    1888:	7100005f 	cmp	w2, #0x0
    188c:	540000ad 	b.le	18a0 <kprintf+0x9c0>
    1890:	91003c01 	add	x1, x0, #0xf
    1894:	927df021 	and	x1, x1, #0xfffffffffffffff8
    1898:	f9000261 	str	x1, [x19]
    189c:	14000004 	b	18ac <kprintf+0x9cc>
    18a0:	f9400662 	ldr	x2, [x19, #8]
    18a4:	93407c20 	sxtw	x0, w1
    18a8:	8b000040 	add	x0, x2, x0
    18ac:	f9400000 	ldr	x0, [x0]
    18b0:	b98057e1 	ldrsw	x1, [sp, #84]
    18b4:	f9000001 	str	x1, [x0]
/home/avees/optee_os-nvidia/lib/libutils/ext/snprintk.c:412
    18b8:	14000488 	b	2ad8 <kprintf+0x1bf8>
/home/avees/optee_os-nvidia/lib/libutils/ext/snprintk.c:408
    18bc:	b94053e0 	ldr	w0, [sp, #80]
    18c0:	121a0000 	and	w0, w0, #0x40
    18c4:	7100001f 	cmp	w0, #0x0
    18c8:	54000340 	b.eq	1930 <kprintf+0xa50>  // b.none
/home/avees/optee_os-nvidia/lib/libutils/ext/snprintk.c:409
    18cc:	b9401a61 	ldr	w1, [x19, #24]
    18d0:	f9400260 	ldr	x0, [x19]
    18d4:	7100003f 	cmp	w1, #0x0
    18d8:	540000ab 	b.lt	18ec <kprintf+0xa0c>  // b.tstop
    18dc:	91003c01 	add	x1, x0, #0xf
    18e0:	927df021 	and	x1, x1, #0xfffffffffffffff8
    18e4:	f9000261 	str	x1, [x19]
    18e8:	1400000d 	b	191c <kprintf+0xa3c>
    18ec:	11002022 	add	w2, w1, #0x8
    18f0:	b9001a62 	str	w2, [x19, #24]
    18f4:	b9401a62 	ldr	w2, [x19, #24]
    18f8:	7100005f 	cmp	w2, #0x0
    18fc:	540000ad 	b.le	1910 <kprintf+0xa30>
    1900:	91003c01 	add	x1, x0, #0xf
    1904:	927df021 	and	x1, x1, #0xfffffffffffffff8
    1908:	f9000261 	str	x1, [x19]
    190c:	14000004 	b	191c <kprintf+0xa3c>
    1910:	f9400662 	ldr	x2, [x19, #8]
    1914:	93407c20 	sxtw	x0, w1
    1918:	8b000040 	add	x0, x2, x0
    191c:	f9400000 	ldr	x0, [x0]
    1920:	b94057e1 	ldr	w1, [sp, #84]
    1924:	13003c21 	sxth	w1, w1
    1928:	79000001 	strh	w1, [x0]
/home/avees/optee_os-nvidia/lib/libutils/ext/snprintk.c:412
    192c:	1400046b 	b	2ad8 <kprintf+0x1bf8>
/home/avees/optee_os-nvidia/lib/libutils/ext/snprintk.c:411
    1930:	b9401a61 	ldr	w1, [x19, #24]
    1934:	f9400260 	ldr	x0, [x19]
    1938:	7100003f 	cmp	w1, #0x0
    193c:	540000ab 	b.lt	1950 <kprintf+0xa70>  // b.tstop
    1940:	91003c01 	add	x1, x0, #0xf
    1944:	927df021 	and	x1, x1, #0xfffffffffffffff8
    1948:	f9000261 	str	x1, [x19]
    194c:	1400000d 	b	1980 <kprintf+0xaa0>
    1950:	11002022 	add	w2, w1, #0x8
    1954:	b9001a62 	str	w2, [x19, #24]
    1958:	b9401a62 	ldr	w2, [x19, #24]
    195c:	7100005f 	cmp	w2, #0x0
    1960:	540000ad 	b.le	1974 <kprintf+0xa94>
    1964:	91003c01 	add	x1, x0, #0xf
    1968:	927df021 	and	x1, x1, #0xfffffffffffffff8
    196c:	f9000261 	str	x1, [x19]
    1970:	14000004 	b	1980 <kprintf+0xaa0>
    1974:	f9400662 	ldr	x2, [x19, #8]
    1978:	93407c20 	sxtw	x0, w1
    197c:	8b000040 	add	x0, x2, x0
    1980:	f9400000 	ldr	x0, [x0]
    1984:	b94057e1 	ldr	w1, [sp, #84]
    1988:	b9000001 	str	w1, [x0]
/home/avees/optee_os-nvidia/lib/libutils/ext/snprintk.c:412
    198c:	14000453 	b	2ad8 <kprintf+0x1bf8>
/home/avees/optee_os-nvidia/lib/libutils/ext/snprintk.c:414
    1990:	b94053e0 	ldr	w0, [sp, #80]
    1994:	321c0000 	orr	w0, w0, #0x10
    1998:	b90053e0 	str	w0, [sp, #80]
/home/avees/optee_os-nvidia/lib/libutils/ext/snprintk.c:417
    199c:	b94053e0 	ldr	w0, [sp, #80]
    19a0:	12190000 	and	w0, w0, #0x80
    19a4:	7100001f 	cmp	w0, #0x0
    19a8:	540002e0 	b.eq	1a04 <kprintf+0xb24>  // b.none
    19ac:	b9401a61 	ldr	w1, [x19, #24]
    19b0:	f9400260 	ldr	x0, [x19]
    19b4:	7100003f 	cmp	w1, #0x0
    19b8:	540000ab 	b.lt	19cc <kprintf+0xaec>  // b.tstop
    19bc:	91003c01 	add	x1, x0, #0xf
    19c0:	927df021 	and	x1, x1, #0xfffffffffffffff8
    19c4:	f9000261 	str	x1, [x19]
    19c8:	1400000d 	b	19fc <kprintf+0xb1c>
    19cc:	11002022 	add	w2, w1, #0x8
    19d0:	b9001a62 	str	w2, [x19, #24]
    19d4:	b9401a62 	ldr	w2, [x19, #24]
    19d8:	7100005f 	cmp	w2, #0x0
    19dc:	540000ad 	b.le	19f0 <kprintf+0xb10>
    19e0:	91003c01 	add	x1, x0, #0xf
    19e4:	927df021 	and	x1, x1, #0xfffffffffffffff8
    19e8:	f9000261 	str	x1, [x19]
    19ec:	14000004 	b	19fc <kprintf+0xb1c>
    19f0:	f9400662 	ldr	x2, [x19, #8]
    19f4:	93407c20 	sxtw	x0, w1
    19f8:	8b000040 	add	x0, x2, x0
    19fc:	f9400000 	ldr	x0, [x0]
    1a00:	1400009b 	b	1c6c <kprintf+0xd8c>
/home/avees/optee_os-nvidia/lib/libutils/ext/snprintk.c:417 (discriminator 2)
    1a04:	b94053e0 	ldr	w0, [sp, #80]
    1a08:	12180000 	and	w0, w0, #0x100
    1a0c:	7100001f 	cmp	w0, #0x0
    1a10:	540002e0 	b.eq	1a6c <kprintf+0xb8c>  // b.none
/home/avees/optee_os-nvidia/lib/libutils/ext/snprintk.c:417
    1a14:	b9401a61 	ldr	w1, [x19, #24]
    1a18:	f9400260 	ldr	x0, [x19]
    1a1c:	7100003f 	cmp	w1, #0x0
    1a20:	540000ab 	b.lt	1a34 <kprintf+0xb54>  // b.tstop
    1a24:	91003c01 	add	x1, x0, #0xf
    1a28:	927df021 	and	x1, x1, #0xfffffffffffffff8
    1a2c:	f9000261 	str	x1, [x19]
    1a30:	1400000d 	b	1a64 <kprintf+0xb84>
    1a34:	11002022 	add	w2, w1, #0x8
    1a38:	b9001a62 	str	w2, [x19, #24]
    1a3c:	b9401a62 	ldr	w2, [x19, #24]
    1a40:	7100005f 	cmp	w2, #0x0
    1a44:	540000ad 	b.le	1a58 <kprintf+0xb78>
    1a48:	91003c01 	add	x1, x0, #0xf
    1a4c:	927df021 	and	x1, x1, #0xfffffffffffffff8
    1a50:	f9000261 	str	x1, [x19]
    1a54:	14000004 	b	1a64 <kprintf+0xb84>
    1a58:	f9400662 	ldr	x2, [x19, #8]
    1a5c:	93407c20 	sxtw	x0, w1
    1a60:	8b000040 	add	x0, x2, x0
    1a64:	f9400000 	ldr	x0, [x0]
    1a68:	14000081 	b	1c6c <kprintf+0xd8c>
/home/avees/optee_os-nvidia/lib/libutils/ext/snprintk.c:417 (discriminator 5)
    1a6c:	b94053e0 	ldr	w0, [sp, #80]
    1a70:	12170000 	and	w0, w0, #0x200
    1a74:	7100001f 	cmp	w0, #0x0
    1a78:	540002e0 	b.eq	1ad4 <kprintf+0xbf4>  // b.none
/home/avees/optee_os-nvidia/lib/libutils/ext/snprintk.c:417
    1a7c:	b9401a61 	ldr	w1, [x19, #24]
    1a80:	f9400260 	ldr	x0, [x19]
    1a84:	7100003f 	cmp	w1, #0x0
    1a88:	540000ab 	b.lt	1a9c <kprintf+0xbbc>  // b.tstop
    1a8c:	91003c01 	add	x1, x0, #0xf
    1a90:	927df021 	and	x1, x1, #0xfffffffffffffff8
    1a94:	f9000261 	str	x1, [x19]
    1a98:	1400000d 	b	1acc <kprintf+0xbec>
    1a9c:	11002022 	add	w2, w1, #0x8
    1aa0:	b9001a62 	str	w2, [x19, #24]
    1aa4:	b9401a62 	ldr	w2, [x19, #24]
    1aa8:	7100005f 	cmp	w2, #0x0
    1aac:	540000ad 	b.le	1ac0 <kprintf+0xbe0>
    1ab0:	91003c01 	add	x1, x0, #0xf
    1ab4:	927df021 	and	x1, x1, #0xfffffffffffffff8
    1ab8:	f9000261 	str	x1, [x19]
    1abc:	14000004 	b	1acc <kprintf+0xbec>
    1ac0:	f9400662 	ldr	x2, [x19, #8]
    1ac4:	93407c20 	sxtw	x0, w1
    1ac8:	8b000040 	add	x0, x2, x0
    1acc:	f9400000 	ldr	x0, [x0]
    1ad0:	14000067 	b	1c6c <kprintf+0xd8c>
/home/avees/optee_os-nvidia/lib/libutils/ext/snprintk.c:417 (discriminator 8)
    1ad4:	b94053e0 	ldr	w0, [sp, #80]
    1ad8:	121b0000 	and	w0, w0, #0x20
    1adc:	7100001f 	cmp	w0, #0x0
    1ae0:	540002e0 	b.eq	1b3c <kprintf+0xc5c>  // b.none
/home/avees/optee_os-nvidia/lib/libutils/ext/snprintk.c:417
    1ae4:	b9401a61 	ldr	w1, [x19, #24]
    1ae8:	f9400260 	ldr	x0, [x19]
    1aec:	7100003f 	cmp	w1, #0x0
    1af0:	540000ab 	b.lt	1b04 <kprintf+0xc24>  // b.tstop
    1af4:	91003c01 	add	x1, x0, #0xf
    1af8:	927df021 	and	x1, x1, #0xfffffffffffffff8
    1afc:	f9000261 	str	x1, [x19]
    1b00:	1400000d 	b	1b34 <kprintf+0xc54>
    1b04:	11002022 	add	w2, w1, #0x8
    1b08:	b9001a62 	str	w2, [x19, #24]
    1b0c:	b9401a62 	ldr	w2, [x19, #24]
    1b10:	7100005f 	cmp	w2, #0x0
    1b14:	540000ad 	b.le	1b28 <kprintf+0xc48>
    1b18:	91003c01 	add	x1, x0, #0xf
    1b1c:	927df021 	and	x1, x1, #0xfffffffffffffff8
    1b20:	f9000261 	str	x1, [x19]
    1b24:	14000004 	b	1b34 <kprintf+0xc54>
    1b28:	f9400662 	ldr	x2, [x19, #8]
    1b2c:	93407c20 	sxtw	x0, w1
    1b30:	8b000040 	add	x0, x2, x0
    1b34:	f9400000 	ldr	x0, [x0]
    1b38:	1400004d 	b	1c6c <kprintf+0xd8c>
/home/avees/optee_os-nvidia/lib/libutils/ext/snprintk.c:417 (discriminator 11)
    1b3c:	b94053e0 	ldr	w0, [sp, #80]
    1b40:	121c0000 	and	w0, w0, #0x10
    1b44:	7100001f 	cmp	w0, #0x0
    1b48:	540002e0 	b.eq	1ba4 <kprintf+0xcc4>  // b.none
/home/avees/optee_os-nvidia/lib/libutils/ext/snprintk.c:417
    1b4c:	b9401a61 	ldr	w1, [x19, #24]
    1b50:	f9400260 	ldr	x0, [x19]
    1b54:	7100003f 	cmp	w1, #0x0
    1b58:	540000ab 	b.lt	1b6c <kprintf+0xc8c>  // b.tstop
    1b5c:	91003c01 	add	x1, x0, #0xf
    1b60:	927df021 	and	x1, x1, #0xfffffffffffffff8
    1b64:	f9000261 	str	x1, [x19]
    1b68:	1400000d 	b	1b9c <kprintf+0xcbc>
    1b6c:	11002022 	add	w2, w1, #0x8
    1b70:	b9001a62 	str	w2, [x19, #24]
    1b74:	b9401a62 	ldr	w2, [x19, #24]
    1b78:	7100005f 	cmp	w2, #0x0
    1b7c:	540000ad 	b.le	1b90 <kprintf+0xcb0>
    1b80:	91003c01 	add	x1, x0, #0xf
    1b84:	927df021 	and	x1, x1, #0xfffffffffffffff8
    1b88:	f9000261 	str	x1, [x19]
    1b8c:	14000004 	b	1b9c <kprintf+0xcbc>
    1b90:	f9400662 	ldr	x2, [x19, #8]
    1b94:	93407c20 	sxtw	x0, w1
    1b98:	8b000040 	add	x0, x2, x0
    1b9c:	f9400000 	ldr	x0, [x0]
    1ba0:	14000033 	b	1c6c <kprintf+0xd8c>
/home/avees/optee_os-nvidia/lib/libutils/ext/snprintk.c:417 (discriminator 14)
    1ba4:	b94053e0 	ldr	w0, [sp, #80]
    1ba8:	121a0000 	and	w0, w0, #0x40
    1bac:	7100001f 	cmp	w0, #0x0
    1bb0:	54000320 	b.eq	1c14 <kprintf+0xd34>  // b.none
/home/avees/optee_os-nvidia/lib/libutils/ext/snprintk.c:417
    1bb4:	b9401a61 	ldr	w1, [x19, #24]
    1bb8:	f9400260 	ldr	x0, [x19]
    1bbc:	7100003f 	cmp	w1, #0x0
    1bc0:	540000ab 	b.lt	1bd4 <kprintf+0xcf4>  // b.tstop
    1bc4:	91002c01 	add	x1, x0, #0xb
    1bc8:	927df021 	and	x1, x1, #0xfffffffffffffff8
    1bcc:	f9000261 	str	x1, [x19]
    1bd0:	1400000d 	b	1c04 <kprintf+0xd24>
    1bd4:	11002022 	add	w2, w1, #0x8
    1bd8:	b9001a62 	str	w2, [x19, #24]
    1bdc:	b9401a62 	ldr	w2, [x19, #24]
    1be0:	7100005f 	cmp	w2, #0x0
    1be4:	540000ad 	b.le	1bf8 <kprintf+0xd18>
    1be8:	91002c01 	add	x1, x0, #0xb
    1bec:	927df021 	and	x1, x1, #0xfffffffffffffff8
    1bf0:	f9000261 	str	x1, [x19]
    1bf4:	14000004 	b	1c04 <kprintf+0xd24>
    1bf8:	f9400662 	ldr	x2, [x19, #8]
    1bfc:	93407c20 	sxtw	x0, w1
    1c00:	8b000040 	add	x0, x2, x0
    1c04:	b9400000 	ldr	w0, [x0]
    1c08:	12003c00 	and	w0, w0, #0xffff
    1c0c:	92403c00 	and	x0, x0, #0xffff
    1c10:	14000017 	b	1c6c <kprintf+0xd8c>
    1c14:	b9401a61 	ldr	w1, [x19, #24]
    1c18:	f9400260 	ldr	x0, [x19]
    1c1c:	7100003f 	cmp	w1, #0x0
    1c20:	540000ab 	b.lt	1c34 <kprintf+0xd54>  // b.tstop
    1c24:	91002c01 	add	x1, x0, #0xb
    1c28:	927df021 	and	x1, x1, #0xfffffffffffffff8
    1c2c:	f9000261 	str	x1, [x19]
    1c30:	1400000d 	b	1c64 <kprintf+0xd84>
    1c34:	11002022 	add	w2, w1, #0x8
    1c38:	b9001a62 	str	w2, [x19, #24]
    1c3c:	b9401a62 	ldr	w2, [x19, #24]
    1c40:	7100005f 	cmp	w2, #0x0
    1c44:	540000ad 	b.le	1c58 <kprintf+0xd78>
    1c48:	91002c01 	add	x1, x0, #0xb
    1c4c:	927df021 	and	x1, x1, #0xfffffffffffffff8
    1c50:	f9000261 	str	x1, [x19]
    1c54:	14000004 	b	1c64 <kprintf+0xd84>
    1c58:	f9400662 	ldr	x2, [x19, #8]
    1c5c:	93407c20 	sxtw	x0, w1
    1c60:	8b000040 	add	x0, x2, x0
    1c64:	b9400000 	ldr	w0, [x0]
    1c68:	2a0003e0 	mov	w0, w0
/home/avees/optee_os-nvidia/lib/libutils/ext/snprintk.c:417 (discriminator 24)
    1c6c:	f90043e0 	str	x0, [sp, #128]
/home/avees/optee_os-nvidia/lib/libutils/ext/snprintk.c:418 (discriminator 24)
    1c70:	b90063ff 	str	wzr, [sp, #96]
/home/avees/optee_os-nvidia/lib/libutils/ext/snprintk.c:419 (discriminator 24)
    1c74:	1400020f 	b	24b0 <kprintf+0x15d0>
/home/avees/optee_os-nvidia/lib/libutils/ext/snprintk.c:421
    1c78:	3940cfe0 	ldrb	w0, [sp, #51]
    1c7c:	7100001f 	cmp	w0, #0x0
    1c80:	54000560 	b.eq	1d2c <kprintf+0xe4c>  // b.none
/home/avees/optee_os-nvidia/lib/libutils/ext/snprintk.c:421 (discriminator 1)
    1c84:	f9403be0 	ldr	x0, [sp, #112]
    1c88:	39400000 	ldrb	w0, [x0]
    1c8c:	7101541f 	cmp	w0, #0x55
    1c90:	540004e1 	b.ne	1d2c <kprintf+0xe4c>  // b.any
/home/avees/optee_os-nvidia/lib/libutils/ext/snprintk.c:421 (discriminator 2)
    1c94:	f9403be0 	ldr	x0, [sp, #112]
    1c98:	91000400 	add	x0, x0, #0x1
    1c9c:	39400000 	ldrb	w0, [x0]
    1ca0:	7101b01f 	cmp	w0, #0x6c
    1ca4:	54000441 	b.ne	1d2c <kprintf+0xe4c>  // b.any
/home/avees/optee_os-nvidia/lib/libutils/ext/snprintk.c:426
    1ca8:	f9403be0 	ldr	x0, [sp, #112]
    1cac:	91000800 	add	x0, x0, #0x2
    1cb0:	f9003be0 	str	x0, [sp, #112]
/home/avees/optee_os-nvidia/lib/libutils/ext/snprintk.c:427
    1cb4:	b9401a61 	ldr	w1, [x19, #24]
    1cb8:	f9400260 	ldr	x0, [x19]
    1cbc:	7100003f 	cmp	w1, #0x0
    1cc0:	540000ab 	b.lt	1cd4 <kprintf+0xdf4>  // b.tstop
    1cc4:	91003c01 	add	x1, x0, #0xf
    1cc8:	927df021 	and	x1, x1, #0xfffffffffffffff8
    1ccc:	f9000261 	str	x1, [x19]
    1cd0:	1400000d 	b	1d04 <kprintf+0xe24>
    1cd4:	11002022 	add	w2, w1, #0x8
    1cd8:	b9001a62 	str	w2, [x19, #24]
    1cdc:	b9401a62 	ldr	w2, [x19, #24]
    1ce0:	7100005f 	cmp	w2, #0x0
    1ce4:	540000ad 	b.le	1cf8 <kprintf+0xe18>
    1ce8:	91003c01 	add	x1, x0, #0xf
    1cec:	927df021 	and	x1, x1, #0xfffffffffffffff8
    1cf0:	f9000261 	str	x1, [x19]
    1cf4:	14000004 	b	1d04 <kprintf+0xe24>
    1cf8:	f9400662 	ldr	x2, [x19, #8]
    1cfc:	93407c20 	sxtw	x0, w1
    1d00:	8b000040 	add	x0, x2, x0
    1d04:	f9400001 	ldr	x1, [x0]
    1d08:	910283e0 	add	x0, sp, #0xa0
    1d0c:	aa0103e2 	mov	x2, x1
    1d10:	d28004a1 	mov	x1, #0x25                  	// #37
    1d14:	97fffc3a 	bl	dfc <uuid2str>
    1d18:	b9006fe0 	str	w0, [sp, #108]
/home/avees/optee_os-nvidia/lib/libutils/ext/snprintk.c:429
    1d1c:	910283e0 	add	x0, sp, #0xa0
    1d20:	f9003fe0 	str	x0, [sp, #120]
/home/avees/optee_os-nvidia/lib/libutils/ext/snprintk.c:430
    1d24:	39011fff 	strb	wzr, [sp, #71]
/home/avees/optee_os-nvidia/lib/libutils/ext/snprintk.c:431
    1d28:	14000277 	b	2704 <kprintf+0x1824>
/home/avees/optee_os-nvidia/lib/libutils/ext/snprintk.c:441
    1d2c:	b9401a61 	ldr	w1, [x19, #24]
    1d30:	f9400260 	ldr	x0, [x19]
    1d34:	7100003f 	cmp	w1, #0x0
    1d38:	540000ab 	b.lt	1d4c <kprintf+0xe6c>  // b.tstop
    1d3c:	91003c01 	add	x1, x0, #0xf
    1d40:	927df021 	and	x1, x1, #0xfffffffffffffff8
    1d44:	f9000261 	str	x1, [x19]
    1d48:	1400000d 	b	1d7c <kprintf+0xe9c>
    1d4c:	11002022 	add	w2, w1, #0x8
    1d50:	b9001a62 	str	w2, [x19, #24]
    1d54:	b9401a62 	ldr	w2, [x19, #24]
    1d58:	7100005f 	cmp	w2, #0x0
    1d5c:	540000ad 	b.le	1d70 <kprintf+0xe90>
    1d60:	91003c01 	add	x1, x0, #0xf
    1d64:	927df021 	and	x1, x1, #0xfffffffffffffff8
    1d68:	f9000261 	str	x1, [x19]
    1d6c:	14000004 	b	1d7c <kprintf+0xe9c>
    1d70:	f9400662 	ldr	x2, [x19, #8]
    1d74:	93407c20 	sxtw	x0, w1
    1d78:	8b000040 	add	x0, x2, x0
    1d7c:	f9400000 	ldr	x0, [x0]
    1d80:	f90043e0 	str	x0, [sp, #128]
/home/avees/optee_os-nvidia/lib/libutils/ext/snprintk.c:442
    1d84:	52800040 	mov	w0, #0x2                   	// #2
    1d88:	b90063e0 	str	w0, [sp, #96]
/home/avees/optee_os-nvidia/lib/libutils/ext/snprintk.c:443
    1d8c:	d00000e0 	adrp	x0, 1f000 <__text_end+0x20cc>
    1d90:	913b2000 	add	x0, x0, #0xec8
    1d94:	f90047e0 	str	x0, [sp, #136]
/home/avees/optee_os-nvidia/lib/libutils/ext/snprintk.c:444
    1d98:	b94053e0 	ldr	w0, [sp, #80]
    1d9c:	321f0000 	orr	w0, w0, #0x2
    1da0:	b90053e0 	str	w0, [sp, #80]
/home/avees/optee_os-nvidia/lib/libutils/ext/snprintk.c:445
    1da4:	52800f00 	mov	w0, #0x78                  	// #120
    1da8:	b9004be0 	str	w0, [sp, #72]
/home/avees/optee_os-nvidia/lib/libutils/ext/snprintk.c:446
    1dac:	140001c1 	b	24b0 <kprintf+0x15d0>
/home/avees/optee_os-nvidia/lib/libutils/ext/snprintk.c:448
    1db0:	b9401a61 	ldr	w1, [x19, #24]
    1db4:	f9400260 	ldr	x0, [x19]
    1db8:	7100003f 	cmp	w1, #0x0
    1dbc:	540000ab 	b.lt	1dd0 <kprintf+0xef0>  // b.tstop
    1dc0:	91003c01 	add	x1, x0, #0xf
    1dc4:	927df021 	and	x1, x1, #0xfffffffffffffff8
    1dc8:	f9000261 	str	x1, [x19]
    1dcc:	1400000d 	b	1e00 <kprintf+0xf20>
    1dd0:	11002022 	add	w2, w1, #0x8
    1dd4:	b9001a62 	str	w2, [x19, #24]
    1dd8:	b9401a62 	ldr	w2, [x19, #24]
    1ddc:	7100005f 	cmp	w2, #0x0
    1de0:	540000ad 	b.le	1df4 <kprintf+0xf14>
    1de4:	91003c01 	add	x1, x0, #0xf
    1de8:	927df021 	and	x1, x1, #0xfffffffffffffff8
    1dec:	f9000261 	str	x1, [x19]
    1df0:	14000004 	b	1e00 <kprintf+0xf20>
    1df4:	f9400662 	ldr	x2, [x19, #8]
    1df8:	93407c20 	sxtw	x0, w1
    1dfc:	8b000040 	add	x0, x2, x0
    1e00:	f9400000 	ldr	x0, [x0]
    1e04:	f9003fe0 	str	x0, [sp, #120]
    1e08:	f9403fe0 	ldr	x0, [sp, #120]
    1e0c:	f100001f 	cmp	x0, #0x0
    1e10:	54000081 	b.ne	1e20 <kprintf+0xf40>  // b.any
/home/avees/optee_os-nvidia/lib/libutils/ext/snprintk.c:450
    1e14:	d00000e0 	adrp	x0, 1f000 <__text_end+0x20cc>
    1e18:	913cc000 	add	x0, x0, #0xf30
    1e1c:	f9003fe0 	str	x0, [sp, #120]
/home/avees/optee_os-nvidia/lib/libutils/ext/snprintk.c:451
    1e20:	b9405fe0 	ldr	w0, [sp, #92]
    1e24:	7100001f 	cmp	w0, #0x0
    1e28:	5400030b 	b.lt	1e88 <kprintf+0xfa8>  // b.tstop
/home/avees/optee_os-nvidia/lib/libutils/ext/snprintk.c:457
    1e2c:	b9805fe0 	ldrsw	x0, [sp, #92]
    1e30:	aa0003e2 	mov	x2, x0
    1e34:	52800001 	mov	w1, #0x0                   	// #0
    1e38:	f9403fe0 	ldr	x0, [sp, #120]
    1e3c:	94000342 	bl	2b44 <memchr>
    1e40:	f9004fe0 	str	x0, [sp, #152]
/home/avees/optee_os-nvidia/lib/libutils/ext/snprintk.c:459
    1e44:	f9404fe0 	ldr	x0, [sp, #152]
    1e48:	f100001f 	cmp	x0, #0x0
    1e4c:	54000180 	b.eq	1e7c <kprintf+0xf9c>  // b.none
/home/avees/optee_os-nvidia/lib/libutils/ext/snprintk.c:460
    1e50:	f9404fe1 	ldr	x1, [sp, #152]
    1e54:	f9403fe0 	ldr	x0, [sp, #120]
    1e58:	cb000020 	sub	x0, x1, x0
    1e5c:	b9006fe0 	str	w0, [sp, #108]
/home/avees/optee_os-nvidia/lib/libutils/ext/snprintk.c:461
    1e60:	b9406fe1 	ldr	w1, [sp, #108]
    1e64:	b9405fe0 	ldr	w0, [sp, #92]
    1e68:	6b00003f 	cmp	w1, w0
    1e6c:	5400014d 	b.le	1e94 <kprintf+0xfb4>
/home/avees/optee_os-nvidia/lib/libutils/ext/snprintk.c:462
    1e70:	b9405fe0 	ldr	w0, [sp, #92]
    1e74:	b9006fe0 	str	w0, [sp, #108]
    1e78:	14000007 	b	1e94 <kprintf+0xfb4>
/home/avees/optee_os-nvidia/lib/libutils/ext/snprintk.c:464
    1e7c:	b9405fe0 	ldr	w0, [sp, #92]
    1e80:	b9006fe0 	str	w0, [sp, #108]
    1e84:	14000004 	b	1e94 <kprintf+0xfb4>
/home/avees/optee_os-nvidia/lib/libutils/ext/snprintk.c:466
    1e88:	f9403fe0 	ldr	x0, [sp, #120]
    1e8c:	9400039c 	bl	2cfc <strlen>
    1e90:	b9006fe0 	str	w0, [sp, #108]
/home/avees/optee_os-nvidia/lib/libutils/ext/snprintk.c:467
    1e94:	39011fff 	strb	wzr, [sp, #71]
/home/avees/optee_os-nvidia/lib/libutils/ext/snprintk.c:468
    1e98:	1400021b 	b	2704 <kprintf+0x1824>
/home/avees/optee_os-nvidia/lib/libutils/ext/snprintk.c:470
    1e9c:	b94053e0 	ldr	w0, [sp, #80]
    1ea0:	321c0000 	orr	w0, w0, #0x10
    1ea4:	b90053e0 	str	w0, [sp, #80]
/home/avees/optee_os-nvidia/lib/libutils/ext/snprintk.c:473
    1ea8:	b94053e0 	ldr	w0, [sp, #80]
    1eac:	12190000 	and	w0, w0, #0x80
    1eb0:	7100001f 	cmp	w0, #0x0
    1eb4:	540002e0 	b.eq	1f10 <kprintf+0x1030>  // b.none
    1eb8:	b9401a61 	ldr	w1, [x19, #24]
    1ebc:	f9400260 	ldr	x0, [x19]
    1ec0:	7100003f 	cmp	w1, #0x0
    1ec4:	540000ab 	b.lt	1ed8 <kprintf+0xff8>  // b.tstop
    1ec8:	91003c01 	add	x1, x0, #0xf
    1ecc:	927df021 	and	x1, x1, #0xfffffffffffffff8
    1ed0:	f9000261 	str	x1, [x19]
    1ed4:	1400000d 	b	1f08 <kprintf+0x1028>
    1ed8:	11002022 	add	w2, w1, #0x8
    1edc:	b9001a62 	str	w2, [x19, #24]
    1ee0:	b9401a62 	ldr	w2, [x19, #24]
    1ee4:	7100005f 	cmp	w2, #0x0
    1ee8:	540000ad 	b.le	1efc <kprintf+0x101c>
    1eec:	91003c01 	add	x1, x0, #0xf
    1ef0:	927df021 	and	x1, x1, #0xfffffffffffffff8
    1ef4:	f9000261 	str	x1, [x19]
    1ef8:	14000004 	b	1f08 <kprintf+0x1028>
    1efc:	f9400662 	ldr	x2, [x19, #8]
    1f00:	93407c20 	sxtw	x0, w1
    1f04:	8b000040 	add	x0, x2, x0
    1f08:	f9400000 	ldr	x0, [x0]
    1f0c:	1400009b 	b	2178 <kprintf+0x1298>
/home/avees/optee_os-nvidia/lib/libutils/ext/snprintk.c:473 (discriminator 2)
    1f10:	b94053e0 	ldr	w0, [sp, #80]
    1f14:	12180000 	and	w0, w0, #0x100
    1f18:	7100001f 	cmp	w0, #0x0
    1f1c:	540002e0 	b.eq	1f78 <kprintf+0x1098>  // b.none
/home/avees/optee_os-nvidia/lib/libutils/ext/snprintk.c:473
    1f20:	b9401a61 	ldr	w1, [x19, #24]
    1f24:	f9400260 	ldr	x0, [x19]
    1f28:	7100003f 	cmp	w1, #0x0
    1f2c:	540000ab 	b.lt	1f40 <kprintf+0x1060>  // b.tstop
    1f30:	91003c01 	add	x1, x0, #0xf
    1f34:	927df021 	and	x1, x1, #0xfffffffffffffff8
    1f38:	f9000261 	str	x1, [x19]
    1f3c:	1400000d 	b	1f70 <kprintf+0x1090>
    1f40:	11002022 	add	w2, w1, #0x8
    1f44:	b9001a62 	str	w2, [x19, #24]
    1f48:	b9401a62 	ldr	w2, [x19, #24]
    1f4c:	7100005f 	cmp	w2, #0x0
    1f50:	540000ad 	b.le	1f64 <kprintf+0x1084>
    1f54:	91003c01 	add	x1, x0, #0xf
    1f58:	927df021 	and	x1, x1, #0xfffffffffffffff8
    1f5c:	f9000261 	str	x1, [x19]
    1f60:	14000004 	b	1f70 <kprintf+0x1090>
    1f64:	f9400662 	ldr	x2, [x19, #8]
    1f68:	93407c20 	sxtw	x0, w1
    1f6c:	8b000040 	add	x0, x2, x0
    1f70:	f9400000 	ldr	x0, [x0]
    1f74:	14000081 	b	2178 <kprintf+0x1298>
/home/avees/optee_os-nvidia/lib/libutils/ext/snprintk.c:473 (discriminator 5)
    1f78:	b94053e0 	ldr	w0, [sp, #80]
    1f7c:	12170000 	and	w0, w0, #0x200
    1f80:	7100001f 	cmp	w0, #0x0
    1f84:	540002e0 	b.eq	1fe0 <kprintf+0x1100>  // b.none
/home/avees/optee_os-nvidia/lib/libutils/ext/snprintk.c:473
    1f88:	b9401a61 	ldr	w1, [x19, #24]
    1f8c:	f9400260 	ldr	x0, [x19]
    1f90:	7100003f 	cmp	w1, #0x0
    1f94:	540000ab 	b.lt	1fa8 <kprintf+0x10c8>  // b.tstop
    1f98:	91003c01 	add	x1, x0, #0xf
    1f9c:	927df021 	and	x1, x1, #0xfffffffffffffff8
    1fa0:	f9000261 	str	x1, [x19]
    1fa4:	1400000d 	b	1fd8 <kprintf+0x10f8>
    1fa8:	11002022 	add	w2, w1, #0x8
    1fac:	b9001a62 	str	w2, [x19, #24]
    1fb0:	b9401a62 	ldr	w2, [x19, #24]
    1fb4:	7100005f 	cmp	w2, #0x0
    1fb8:	540000ad 	b.le	1fcc <kprintf+0x10ec>
    1fbc:	91003c01 	add	x1, x0, #0xf
    1fc0:	927df021 	and	x1, x1, #0xfffffffffffffff8
    1fc4:	f9000261 	str	x1, [x19]
    1fc8:	14000004 	b	1fd8 <kprintf+0x10f8>
    1fcc:	f9400662 	ldr	x2, [x19, #8]
    1fd0:	93407c20 	sxtw	x0, w1
    1fd4:	8b000040 	add	x0, x2, x0
    1fd8:	f9400000 	ldr	x0, [x0]
    1fdc:	14000067 	b	2178 <kprintf+0x1298>
/home/avees/optee_os-nvidia/lib/libutils/ext/snprintk.c:473 (discriminator 8)
    1fe0:	b94053e0 	ldr	w0, [sp, #80]
    1fe4:	121b0000 	and	w0, w0, #0x20
    1fe8:	7100001f 	cmp	w0, #0x0
    1fec:	540002e0 	b.eq	2048 <kprintf+0x1168>  // b.none
/home/avees/optee_os-nvidia/lib/libutils/ext/snprintk.c:473
    1ff0:	b9401a61 	ldr	w1, [x19, #24]
    1ff4:	f9400260 	ldr	x0, [x19]
    1ff8:	7100003f 	cmp	w1, #0x0
    1ffc:	540000ab 	b.lt	2010 <kprintf+0x1130>  // b.tstop
    2000:	91003c01 	add	x1, x0, #0xf
    2004:	927df021 	and	x1, x1, #0xfffffffffffffff8
    2008:	f9000261 	str	x1, [x19]
    200c:	1400000d 	b	2040 <kprintf+0x1160>
    2010:	11002022 	add	w2, w1, #0x8
    2014:	b9001a62 	str	w2, [x19, #24]
    2018:	b9401a62 	ldr	w2, [x19, #24]
    201c:	7100005f 	cmp	w2, #0x0
    2020:	540000ad 	b.le	2034 <kprintf+0x1154>
    2024:	91003c01 	add	x1, x0, #0xf
    2028:	927df021 	and	x1, x1, #0xfffffffffffffff8
    202c:	f9000261 	str	x1, [x19]
    2030:	14000004 	b	2040 <kprintf+0x1160>
    2034:	f9400662 	ldr	x2, [x19, #8]
    2038:	93407c20 	sxtw	x0, w1
    203c:	8b000040 	add	x0, x2, x0
    2040:	f9400000 	ldr	x0, [x0]
    2044:	1400004d 	b	2178 <kprintf+0x1298>
/home/avees/optee_os-nvidia/lib/libutils/ext/snprintk.c:473 (discriminator 11)
    2048:	b94053e0 	ldr	w0, [sp, #80]
    204c:	121c0000 	and	w0, w0, #0x10
    2050:	7100001f 	cmp	w0, #0x0
    2054:	540002e0 	b.eq	20b0 <kprintf+0x11d0>  // b.none
/home/avees/optee_os-nvidia/lib/libutils/ext/snprintk.c:473
    2058:	b9401a61 	ldr	w1, [x19, #24]
    205c:	f9400260 	ldr	x0, [x19]
    2060:	7100003f 	cmp	w1, #0x0
    2064:	540000ab 	b.lt	2078 <kprintf+0x1198>  // b.tstop
    2068:	91003c01 	add	x1, x0, #0xf
    206c:	927df021 	and	x1, x1, #0xfffffffffffffff8
    2070:	f9000261 	str	x1, [x19]
    2074:	1400000d 	b	20a8 <kprintf+0x11c8>
    2078:	11002022 	add	w2, w1, #0x8
    207c:	b9001a62 	str	w2, [x19, #24]
    2080:	b9401a62 	ldr	w2, [x19, #24]
    2084:	7100005f 	cmp	w2, #0x0
    2088:	540000ad 	b.le	209c <kprintf+0x11bc>
    208c:	91003c01 	add	x1, x0, #0xf
    2090:	927df021 	and	x1, x1, #0xfffffffffffffff8
    2094:	f9000261 	str	x1, [x19]
    2098:	14000004 	b	20a8 <kprintf+0x11c8>
    209c:	f9400662 	ldr	x2, [x19, #8]
    20a0:	93407c20 	sxtw	x0, w1
    20a4:	8b000040 	add	x0, x2, x0
    20a8:	f9400000 	ldr	x0, [x0]
    20ac:	14000033 	b	2178 <kprintf+0x1298>
/home/avees/optee_os-nvidia/lib/libutils/ext/snprintk.c:473 (discriminator 14)
    20b0:	b94053e0 	ldr	w0, [sp, #80]
    20b4:	121a0000 	and	w0, w0, #0x40
    20b8:	7100001f 	cmp	w0, #0x0
    20bc:	54000320 	b.eq	2120 <kprintf+0x1240>  // b.none
/home/avees/optee_os-nvidia/lib/libutils/ext/snprintk.c:473
    20c0:	b9401a61 	ldr	w1, [x19, #24]
    20c4:	f9400260 	ldr	x0, [x19]
    20c8:	7100003f 	cmp	w1, #0x0
    20cc:	540000ab 	b.lt	20e0 <kprintf+0x1200>  // b.tstop
    20d0:	91002c01 	add	x1, x0, #0xb
    20d4:	927df021 	and	x1, x1, #0xfffffffffffffff8
    20d8:	f9000261 	str	x1, [x19]
    20dc:	1400000d 	b	2110 <kprintf+0x1230>
    20e0:	11002022 	add	w2, w1, #0x8
    20e4:	b9001a62 	str	w2, [x19, #24]
    20e8:	b9401a62 	ldr	w2, [x19, #24]
    20ec:	7100005f 	cmp	w2, #0x0
    20f0:	540000ad 	b.le	2104 <kprintf+0x1224>
    20f4:	91002c01 	add	x1, x0, #0xb
    20f8:	927df021 	and	x1, x1, #0xfffffffffffffff8
    20fc:	f9000261 	str	x1, [x19]
    2100:	14000004 	b	2110 <kprintf+0x1230>
    2104:	f9400662 	ldr	x2, [x19, #8]
    2108:	93407c20 	sxtw	x0, w1
    210c:	8b000040 	add	x0, x2, x0
    2110:	b9400000 	ldr	w0, [x0]
    2114:	12003c00 	and	w0, w0, #0xffff
    2118:	92403c00 	and	x0, x0, #0xffff
    211c:	14000017 	b	2178 <kprintf+0x1298>
    2120:	b9401a61 	ldr	w1, [x19, #24]
    2124:	f9400260 	ldr	x0, [x19]
    2128:	7100003f 	cmp	w1, #0x0
    212c:	540000ab 	b.lt	2140 <kprintf+0x1260>  // b.tstop
    2130:	91002c01 	add	x1, x0, #0xb
    2134:	927df021 	and	x1, x1, #0xfffffffffffffff8
    2138:	f9000261 	str	x1, [x19]
    213c:	1400000d 	b	2170 <kprintf+0x1290>
    2140:	11002022 	add	w2, w1, #0x8
    2144:	b9001a62 	str	w2, [x19, #24]
    2148:	b9401a62 	ldr	w2, [x19, #24]
    214c:	7100005f 	cmp	w2, #0x0
    2150:	540000ad 	b.le	2164 <kprintf+0x1284>
    2154:	91002c01 	add	x1, x0, #0xb
    2158:	927df021 	and	x1, x1, #0xfffffffffffffff8
    215c:	f9000261 	str	x1, [x19]
    2160:	14000004 	b	2170 <kprintf+0x1290>
    2164:	f9400662 	ldr	x2, [x19, #8]
    2168:	93407c20 	sxtw	x0, w1
    216c:	8b000040 	add	x0, x2, x0
    2170:	b9400000 	ldr	w0, [x0]
    2174:	2a0003e0 	mov	w0, w0
/home/avees/optee_os-nvidia/lib/libutils/ext/snprintk.c:473 (discriminator 24)
    2178:	f90043e0 	str	x0, [sp, #128]
/home/avees/optee_os-nvidia/lib/libutils/ext/snprintk.c:474 (discriminator 24)
    217c:	52800020 	mov	w0, #0x1                   	// #1
    2180:	b90063e0 	str	w0, [sp, #96]
/home/avees/optee_os-nvidia/lib/libutils/ext/snprintk.c:475 (discriminator 24)
    2184:	140000cb 	b	24b0 <kprintf+0x15d0>
/home/avees/optee_os-nvidia/lib/libutils/ext/snprintk.c:477
    2188:	b00000e0 	adrp	x0, 1f000 <__text_end+0x20cc>
    218c:	913b8000 	add	x0, x0, #0xee0
    2190:	f90047e0 	str	x0, [sp, #136]
/home/avees/optee_os-nvidia/lib/libutils/ext/snprintk.c:478
    2194:	14000004 	b	21a4 <kprintf+0x12c4>
/home/avees/optee_os-nvidia/lib/libutils/ext/snprintk.c:480
    2198:	b00000e0 	adrp	x0, 1f000 <__text_end+0x20cc>
    219c:	913b2000 	add	x0, x0, #0xec8
    21a0:	f90047e0 	str	x0, [sp, #136]
/home/avees/optee_os-nvidia/lib/libutils/ext/snprintk.c:481
    21a4:	b94053e0 	ldr	w0, [sp, #80]
    21a8:	12190000 	and	w0, w0, #0x80
    21ac:	7100001f 	cmp	w0, #0x0
    21b0:	540002e0 	b.eq	220c <kprintf+0x132c>  // b.none
    21b4:	b9401a61 	ldr	w1, [x19, #24]
    21b8:	f9400260 	ldr	x0, [x19]
    21bc:	7100003f 	cmp	w1, #0x0
    21c0:	540000ab 	b.lt	21d4 <kprintf+0x12f4>  // b.tstop
    21c4:	91003c01 	add	x1, x0, #0xf
    21c8:	927df021 	and	x1, x1, #0xfffffffffffffff8
    21cc:	f9000261 	str	x1, [x19]
    21d0:	1400000d 	b	2204 <kprintf+0x1324>
    21d4:	11002022 	add	w2, w1, #0x8
    21d8:	b9001a62 	str	w2, [x19, #24]
    21dc:	b9401a62 	ldr	w2, [x19, #24]
    21e0:	7100005f 	cmp	w2, #0x0
    21e4:	540000ad 	b.le	21f8 <kprintf+0x1318>
    21e8:	91003c01 	add	x1, x0, #0xf
    21ec:	927df021 	and	x1, x1, #0xfffffffffffffff8
    21f0:	f9000261 	str	x1, [x19]
    21f4:	14000004 	b	2204 <kprintf+0x1324>
    21f8:	f9400662 	ldr	x2, [x19, #8]
    21fc:	93407c20 	sxtw	x0, w1
    2200:	8b000040 	add	x0, x2, x0
    2204:	f9400000 	ldr	x0, [x0]
    2208:	1400009b 	b	2474 <kprintf+0x1594>
/home/avees/optee_os-nvidia/lib/libutils/ext/snprintk.c:481 (discriminator 2)
    220c:	b94053e0 	ldr	w0, [sp, #80]
    2210:	12180000 	and	w0, w0, #0x100
    2214:	7100001f 	cmp	w0, #0x0
    2218:	540002e0 	b.eq	2274 <kprintf+0x1394>  // b.none
/home/avees/optee_os-nvidia/lib/libutils/ext/snprintk.c:481
    221c:	b9401a61 	ldr	w1, [x19, #24]
    2220:	f9400260 	ldr	x0, [x19]
    2224:	7100003f 	cmp	w1, #0x0
    2228:	540000ab 	b.lt	223c <kprintf+0x135c>  // b.tstop
    222c:	91003c01 	add	x1, x0, #0xf
    2230:	927df021 	and	x1, x1, #0xfffffffffffffff8
    2234:	f9000261 	str	x1, [x19]
    2238:	1400000d 	b	226c <kprintf+0x138c>
    223c:	11002022 	add	w2, w1, #0x8
    2240:	b9001a62 	str	w2, [x19, #24]
    2244:	b9401a62 	ldr	w2, [x19, #24]
    2248:	7100005f 	cmp	w2, #0x0
    224c:	540000ad 	b.le	2260 <kprintf+0x1380>
    2250:	91003c01 	add	x1, x0, #0xf
    2254:	927df021 	and	x1, x1, #0xfffffffffffffff8
    2258:	f9000261 	str	x1, [x19]
    225c:	14000004 	b	226c <kprintf+0x138c>
    2260:	f9400662 	ldr	x2, [x19, #8]
    2264:	93407c20 	sxtw	x0, w1
    2268:	8b000040 	add	x0, x2, x0
    226c:	f9400000 	ldr	x0, [x0]
    2270:	14000081 	b	2474 <kprintf+0x1594>
/home/avees/optee_os-nvidia/lib/libutils/ext/snprintk.c:481 (discriminator 5)
    2274:	b94053e0 	ldr	w0, [sp, #80]
    2278:	12170000 	and	w0, w0, #0x200
    227c:	7100001f 	cmp	w0, #0x0
    2280:	540002e0 	b.eq	22dc <kprintf+0x13fc>  // b.none
/home/avees/optee_os-nvidia/lib/libutils/ext/snprintk.c:481
    2284:	b9401a61 	ldr	w1, [x19, #24]
    2288:	f9400260 	ldr	x0, [x19]
    228c:	7100003f 	cmp	w1, #0x0
    2290:	540000ab 	b.lt	22a4 <kprintf+0x13c4>  // b.tstop
    2294:	91003c01 	add	x1, x0, #0xf
    2298:	927df021 	and	x1, x1, #0xfffffffffffffff8
    229c:	f9000261 	str	x1, [x19]
    22a0:	1400000d 	b	22d4 <kprintf+0x13f4>
    22a4:	11002022 	add	w2, w1, #0x8
    22a8:	b9001a62 	str	w2, [x19, #24]
    22ac:	b9401a62 	ldr	w2, [x19, #24]
    22b0:	7100005f 	cmp	w2, #0x0
    22b4:	540000ad 	b.le	22c8 <kprintf+0x13e8>
    22b8:	91003c01 	add	x1, x0, #0xf
    22bc:	927df021 	and	x1, x1, #0xfffffffffffffff8
    22c0:	f9000261 	str	x1, [x19]
    22c4:	14000004 	b	22d4 <kprintf+0x13f4>
    22c8:	f9400662 	ldr	x2, [x19, #8]
    22cc:	93407c20 	sxtw	x0, w1
    22d0:	8b000040 	add	x0, x2, x0
    22d4:	f9400000 	ldr	x0, [x0]
    22d8:	14000067 	b	2474 <kprintf+0x1594>
/home/avees/optee_os-nvidia/lib/libutils/ext/snprintk.c:481 (discriminator 8)
    22dc:	b94053e0 	ldr	w0, [sp, #80]
    22e0:	121b0000 	and	w0, w0, #0x20
    22e4:	7100001f 	cmp	w0, #0x0
    22e8:	540002e0 	b.eq	2344 <kprintf+0x1464>  // b.none
/home/avees/optee_os-nvidia/lib/libutils/ext/snprintk.c:481
    22ec:	b9401a61 	ldr	w1, [x19, #24]
    22f0:	f9400260 	ldr	x0, [x19]
    22f4:	7100003f 	cmp	w1, #0x0
    22f8:	540000ab 	b.lt	230c <kprintf+0x142c>  // b.tstop
    22fc:	91003c01 	add	x1, x0, #0xf
    2300:	927df021 	and	x1, x1, #0xfffffffffffffff8
    2304:	f9000261 	str	x1, [x19]
    2308:	1400000d 	b	233c <kprintf+0x145c>
    230c:	11002022 	add	w2, w1, #0x8
    2310:	b9001a62 	str	w2, [x19, #24]
    2314:	b9401a62 	ldr	w2, [x19, #24]
    2318:	7100005f 	cmp	w2, #0x0
    231c:	540000ad 	b.le	2330 <kprintf+0x1450>
    2320:	91003c01 	add	x1, x0, #0xf
    2324:	927df021 	and	x1, x1, #0xfffffffffffffff8
    2328:	f9000261 	str	x1, [x19]
    232c:	14000004 	b	233c <kprintf+0x145c>
    2330:	f9400662 	ldr	x2, [x19, #8]
    2334:	93407c20 	sxtw	x0, w1
    2338:	8b000040 	add	x0, x2, x0
    233c:	f9400000 	ldr	x0, [x0]
    2340:	1400004d 	b	2474 <kprintf+0x1594>
/home/avees/optee_os-nvidia/lib/libutils/ext/snprintk.c:481 (discriminator 11)
    2344:	b94053e0 	ldr	w0, [sp, #80]
    2348:	121c0000 	and	w0, w0, #0x10
    234c:	7100001f 	cmp	w0, #0x0
    2350:	540002e0 	b.eq	23ac <kprintf+0x14cc>  // b.none
/home/avees/optee_os-nvidia/lib/libutils/ext/snprintk.c:481
    2354:	b9401a61 	ldr	w1, [x19, #24]
    2358:	f9400260 	ldr	x0, [x19]
    235c:	7100003f 	cmp	w1, #0x0
    2360:	540000ab 	b.lt	2374 <kprintf+0x1494>  // b.tstop
    2364:	91003c01 	add	x1, x0, #0xf
    2368:	927df021 	and	x1, x1, #0xfffffffffffffff8
    236c:	f9000261 	str	x1, [x19]
    2370:	1400000d 	b	23a4 <kprintf+0x14c4>
    2374:	11002022 	add	w2, w1, #0x8
    2378:	b9001a62 	str	w2, [x19, #24]
    237c:	b9401a62 	ldr	w2, [x19, #24]
    2380:	7100005f 	cmp	w2, #0x0
    2384:	540000ad 	b.le	2398 <kprintf+0x14b8>
    2388:	91003c01 	add	x1, x0, #0xf
    238c:	927df021 	and	x1, x1, #0xfffffffffffffff8
    2390:	f9000261 	str	x1, [x19]
    2394:	14000004 	b	23a4 <kprintf+0x14c4>
    2398:	f9400662 	ldr	x2, [x19, #8]
    239c:	93407c20 	sxtw	x0, w1
    23a0:	8b000040 	add	x0, x2, x0
    23a4:	f9400000 	ldr	x0, [x0]
    23a8:	14000033 	b	2474 <kprintf+0x1594>
/home/avees/optee_os-nvidia/lib/libutils/ext/snprintk.c:481 (discriminator 14)
    23ac:	b94053e0 	ldr	w0, [sp, #80]
    23b0:	121a0000 	and	w0, w0, #0x40
    23b4:	7100001f 	cmp	w0, #0x0
    23b8:	54000320 	b.eq	241c <kprintf+0x153c>  // b.none
/home/avees/optee_os-nvidia/lib/libutils/ext/snprintk.c:481
    23bc:	b9401a61 	ldr	w1, [x19, #24]
    23c0:	f9400260 	ldr	x0, [x19]
    23c4:	7100003f 	cmp	w1, #0x0
    23c8:	540000ab 	b.lt	23dc <kprintf+0x14fc>  // b.tstop
    23cc:	91002c01 	add	x1, x0, #0xb
    23d0:	927df021 	and	x1, x1, #0xfffffffffffffff8
    23d4:	f9000261 	str	x1, [x19]
    23d8:	1400000d 	b	240c <kprintf+0x152c>
    23dc:	11002022 	add	w2, w1, #0x8
    23e0:	b9001a62 	str	w2, [x19, #24]
    23e4:	b9401a62 	ldr	w2, [x19, #24]
    23e8:	7100005f 	cmp	w2, #0x0
    23ec:	540000ad 	b.le	2400 <kprintf+0x1520>
    23f0:	91002c01 	add	x1, x0, #0xb
    23f4:	927df021 	and	x1, x1, #0xfffffffffffffff8
    23f8:	f9000261 	str	x1, [x19]
    23fc:	14000004 	b	240c <kprintf+0x152c>
    2400:	f9400662 	ldr	x2, [x19, #8]
    2404:	93407c20 	sxtw	x0, w1
    2408:	8b000040 	add	x0, x2, x0
    240c:	b9400000 	ldr	w0, [x0]
    2410:	12003c00 	and	w0, w0, #0xffff
    2414:	92403c00 	and	x0, x0, #0xffff
    2418:	14000017 	b	2474 <kprintf+0x1594>
    241c:	b9401a61 	ldr	w1, [x19, #24]
    2420:	f9400260 	ldr	x0, [x19]
    2424:	7100003f 	cmp	w1, #0x0
    2428:	540000ab 	b.lt	243c <kprintf+0x155c>  // b.tstop
    242c:	91002c01 	add	x1, x0, #0xb
    2430:	927df021 	and	x1, x1, #0xfffffffffffffff8
    2434:	f9000261 	str	x1, [x19]
    2438:	1400000d 	b	246c <kprintf+0x158c>
    243c:	11002022 	add	w2, w1, #0x8
    2440:	b9001a62 	str	w2, [x19, #24]
    2444:	b9401a62 	ldr	w2, [x19, #24]
    2448:	7100005f 	cmp	w2, #0x0
    244c:	540000ad 	b.le	2460 <kprintf+0x1580>
    2450:	91002c01 	add	x1, x0, #0xb
    2454:	927df021 	and	x1, x1, #0xfffffffffffffff8
    2458:	f9000261 	str	x1, [x19]
    245c:	14000004 	b	246c <kprintf+0x158c>
    2460:	f9400662 	ldr	x2, [x19, #8]
    2464:	93407c20 	sxtw	x0, w1
    2468:	8b000040 	add	x0, x2, x0
    246c:	b9400000 	ldr	w0, [x0]
    2470:	2a0003e0 	mov	w0, w0
/home/avees/optee_os-nvidia/lib/libutils/ext/snprintk.c:481 (discriminator 24)
    2474:	f90043e0 	str	x0, [sp, #128]
/home/avees/optee_os-nvidia/lib/libutils/ext/snprintk.c:482 (discriminator 24)
    2478:	52800040 	mov	w0, #0x2                   	// #2
    247c:	b90063e0 	str	w0, [sp, #96]
/home/avees/optee_os-nvidia/lib/libutils/ext/snprintk.c:484 (discriminator 24)
    2480:	b94053e0 	ldr	w0, [sp, #80]
    2484:	12000000 	and	w0, w0, #0x1
    2488:	7100001f 	cmp	w0, #0x0
    248c:	54000100 	b.eq	24ac <kprintf+0x15cc>  // b.none
/home/avees/optee_os-nvidia/lib/libutils/ext/snprintk.c:484 (discriminator 1)
    2490:	f94043e0 	ldr	x0, [sp, #128]
    2494:	f100001f 	cmp	x0, #0x0
    2498:	540000a0 	b.eq	24ac <kprintf+0x15cc>  // b.none
/home/avees/optee_os-nvidia/lib/libutils/ext/snprintk.c:485
    249c:	b94053e0 	ldr	w0, [sp, #80]
    24a0:	321f0000 	orr	w0, w0, #0x2
    24a4:	b90053e0 	str	w0, [sp, #80]
    24a8:	14000002 	b	24b0 <kprintf+0x15d0>
/home/avees/optee_os-nvidia/lib/libutils/ext/snprintk.c:488
    24ac:	d503201f 	nop
    24b0:	39011fff 	strb	wzr, [sp, #71]
/home/avees/optee_os-nvidia/lib/libutils/ext/snprintk.c:494
    24b4:	b9405fe0 	ldr	w0, [sp, #92]
    24b8:	b90067e0 	str	w0, [sp, #100]
    24bc:	b94067e0 	ldr	w0, [sp, #100]
    24c0:	7100001f 	cmp	w0, #0x0
    24c4:	5400008b 	b.lt	24d4 <kprintf+0x15f4>  // b.tstop
/home/avees/optee_os-nvidia/lib/libutils/ext/snprintk.c:495
    24c8:	b94053e0 	ldr	w0, [sp, #80]
    24cc:	12157800 	and	w0, w0, #0xfffffbff
    24d0:	b90053e0 	str	w0, [sp, #80]
/home/avees/optee_os-nvidia/lib/libutils/ext/snprintk.c:502
    24d4:	910283e0 	add	x0, sp, #0xa0
    24d8:	91009400 	add	x0, x0, #0x25
    24dc:	f9003fe0 	str	x0, [sp, #120]
/home/avees/optee_os-nvidia/lib/libutils/ext/snprintk.c:503
    24e0:	f94043e0 	ldr	x0, [sp, #128]
    24e4:	f100001f 	cmp	x0, #0x0
    24e8:	54000081 	b.ne	24f8 <kprintf+0x1618>  // b.any
/home/avees/optee_os-nvidia/lib/libutils/ext/snprintk.c:503 (discriminator 1)
    24ec:	b9405fe0 	ldr	w0, [sp, #92]
    24f0:	7100001f 	cmp	w0, #0x0
    24f4:	54000dc0 	b.eq	26ac <kprintf+0x17cc>  // b.none
    24f8:	b94063e0 	ldr	w0, [sp, #96]
    24fc:	7100081f 	cmp	w0, #0x2
    2500:	54000a40 	b.eq	2648 <kprintf+0x1768>  // b.none
    2504:	b94063e0 	ldr	w0, [sp, #96]
    2508:	7100081f 	cmp	w0, #0x2
    250c:	54000c08 	b.hi	268c <kprintf+0x17ac>  // b.pmore
    2510:	b94063e0 	ldr	w0, [sp, #96]
    2514:	7100001f 	cmp	w0, #0x0
    2518:	540000c0 	b.eq	2530 <kprintf+0x1650>  // b.none
    251c:	b94063e0 	ldr	w0, [sp, #96]
    2520:	7100041f 	cmp	w0, #0x1
    2524:	54000760 	b.eq	2610 <kprintf+0x1730>  // b.none
    2528:	14000059 	b	268c <kprintf+0x17ac>
/home/avees/optee_os-nvidia/lib/libutils/ext/snprintk.c:510
    252c:	d503201f 	nop
/home/avees/optee_os-nvidia/lib/libutils/ext/snprintk.c:512 (discriminator 1)
    2530:	f94043e0 	ldr	x0, [sp, #128]
    2534:	12001c00 	and	w0, w0, #0xff
    2538:	12000800 	and	w0, w0, #0x7
    253c:	12001c00 	and	w0, w0, #0xff
    2540:	f9403fe1 	ldr	x1, [sp, #120]
    2544:	d1000421 	sub	x1, x1, #0x1
    2548:	f9003fe1 	str	x1, [sp, #120]
    254c:	1100c000 	add	w0, w0, #0x30
    2550:	12001c01 	and	w1, w0, #0xff
    2554:	f9403fe0 	ldr	x0, [sp, #120]
    2558:	39000001 	strb	w1, [x0]
/home/avees/optee_os-nvidia/lib/libutils/ext/snprintk.c:513 (discriminator 1)
    255c:	f94043e0 	ldr	x0, [sp, #128]
    2560:	d343fc00 	lsr	x0, x0, #3
    2564:	f90043e0 	str	x0, [sp, #128]
/home/avees/optee_os-nvidia/lib/libutils/ext/snprintk.c:514 (discriminator 1)
    2568:	f94043e0 	ldr	x0, [sp, #128]
    256c:	f100001f 	cmp	x0, #0x0
    2570:	54fffde1 	b.ne	252c <kprintf+0x164c>  // b.any
/home/avees/optee_os-nvidia/lib/libutils/ext/snprintk.c:516
    2574:	b94053e0 	ldr	w0, [sp, #80]
    2578:	12000000 	and	w0, w0, #0x1
    257c:	7100001f 	cmp	w0, #0x0
    2580:	540009a0 	b.eq	26b4 <kprintf+0x17d4>  // b.none
/home/avees/optee_os-nvidia/lib/libutils/ext/snprintk.c:516 (discriminator 1)
    2584:	f9403fe0 	ldr	x0, [sp, #120]
    2588:	39400000 	ldrb	w0, [x0]
    258c:	7100c01f 	cmp	w0, #0x30
    2590:	54000920 	b.eq	26b4 <kprintf+0x17d4>  // b.none
/home/avees/optee_os-nvidia/lib/libutils/ext/snprintk.c:517
    2594:	f9403fe0 	ldr	x0, [sp, #120]
    2598:	d1000400 	sub	x0, x0, #0x1
    259c:	f9003fe0 	str	x0, [sp, #120]
    25a0:	f9403fe0 	ldr	x0, [sp, #120]
    25a4:	52800601 	mov	w1, #0x30                  	// #48
    25a8:	39000001 	strb	w1, [x0]
/home/avees/optee_os-nvidia/lib/libutils/ext/snprintk.c:518
    25ac:	14000042 	b	26b4 <kprintf+0x17d4>
/home/avees/optee_os-nvidia/lib/libutils/ext/snprintk.c:523
    25b0:	f94043e2 	ldr	x2, [sp, #128]
    25b4:	b202e7e0 	mov	x0, #0xcccccccccccccccc    	// #-3689348814741910324
    25b8:	f29999a0 	movk	x0, #0xcccd
    25bc:	9bc07c40 	umulh	x0, x2, x0
    25c0:	d343fc01 	lsr	x1, x0, #3
    25c4:	aa0103e0 	mov	x0, x1
    25c8:	d37ef400 	lsl	x0, x0, #2
    25cc:	8b010000 	add	x0, x0, x1
    25d0:	d37ff800 	lsl	x0, x0, #1
    25d4:	cb000041 	sub	x1, x2, x0
    25d8:	12001c20 	and	w0, w1, #0xff
    25dc:	f9403fe1 	ldr	x1, [sp, #120]
    25e0:	d1000421 	sub	x1, x1, #0x1
    25e4:	f9003fe1 	str	x1, [sp, #120]
    25e8:	1100c000 	add	w0, w0, #0x30
    25ec:	12001c01 	and	w1, w0, #0xff
    25f0:	f9403fe0 	ldr	x0, [sp, #120]
    25f4:	39000001 	strb	w1, [x0]
/home/avees/optee_os-nvidia/lib/libutils/ext/snprintk.c:524
    25f8:	f94043e1 	ldr	x1, [sp, #128]
    25fc:	b202e7e0 	mov	x0, #0xcccccccccccccccc    	// #-3689348814741910324
    2600:	f29999a0 	movk	x0, #0xcccd
    2604:	9bc07c20 	umulh	x0, x1, x0
    2608:	d343fc00 	lsr	x0, x0, #3
    260c:	f90043e0 	str	x0, [sp, #128]
/home/avees/optee_os-nvidia/lib/libutils/ext/snprintk.c:522
    2610:	f94043e0 	ldr	x0, [sp, #128]
    2614:	f100241f 	cmp	x0, #0x9
    2618:	54fffcc8 	b.hi	25b0 <kprintf+0x16d0>  // b.pmore
/home/avees/optee_os-nvidia/lib/libutils/ext/snprintk.c:526
    261c:	f94043e0 	ldr	x0, [sp, #128]
    2620:	12001c00 	and	w0, w0, #0xff
    2624:	f9403fe1 	ldr	x1, [sp, #120]
    2628:	d1000421 	sub	x1, x1, #0x1
    262c:	f9003fe1 	str	x1, [sp, #120]
    2630:	1100c000 	add	w0, w0, #0x30
    2634:	12001c01 	and	w1, w0, #0xff
    2638:	f9403fe0 	ldr	x0, [sp, #120]
    263c:	39000001 	strb	w1, [x0]
/home/avees/optee_os-nvidia/lib/libutils/ext/snprintk.c:527
    2640:	1400001e 	b	26b8 <kprintf+0x17d8>
/home/avees/optee_os-nvidia/lib/libutils/ext/snprintk.c:529
    2644:	d503201f 	nop
/home/avees/optee_os-nvidia/lib/libutils/ext/snprintk.c:531 (discriminator 1)
    2648:	f94043e0 	ldr	x0, [sp, #128]
    264c:	92400c00 	and	x0, x0, #0xf
    2650:	f94047e1 	ldr	x1, [sp, #136]
    2654:	8b000020 	add	x0, x1, x0
    2658:	f9403fe1 	ldr	x1, [sp, #120]
    265c:	d1000421 	sub	x1, x1, #0x1
    2660:	f9003fe1 	str	x1, [sp, #120]
    2664:	39400001 	ldrb	w1, [x0]
    2668:	f9403fe0 	ldr	x0, [sp, #120]
    266c:	39000001 	strb	w1, [x0]
/home/avees/optee_os-nvidia/lib/libutils/ext/snprintk.c:532 (discriminator 1)
    2670:	f94043e0 	ldr	x0, [sp, #128]
    2674:	d344fc00 	lsr	x0, x0, #4
    2678:	f90043e0 	str	x0, [sp, #128]
/home/avees/optee_os-nvidia/lib/libutils/ext/snprintk.c:533 (discriminator 1)
    267c:	f94043e0 	ldr	x0, [sp, #128]
    2680:	f100001f 	cmp	x0, #0x0
    2684:	54fffe01 	b.ne	2644 <kprintf+0x1764>  // b.any
/home/avees/optee_os-nvidia/lib/libutils/ext/snprintk.c:534
    2688:	1400000c 	b	26b8 <kprintf+0x17d8>
/home/avees/optee_os-nvidia/lib/libutils/ext/snprintk.c:538
    268c:	b00000e0 	adrp	x0, 1f000 <__text_end+0x20cc>
    2690:	913ce000 	add	x0, x0, #0xf38
    2694:	f9003fe0 	str	x0, [sp, #120]
/home/avees/optee_os-nvidia/lib/libutils/ext/snprintk.c:539
    2698:	f9403fe0 	ldr	x0, [sp, #120]
    269c:	94000198 	bl	2cfc <strlen>
    26a0:	b9006fe0 	str	w0, [sp, #108]
/home/avees/optee_os-nvidia/lib/libutils/ext/snprintk.c:540
    26a4:	d503201f 	nop
/home/avees/optee_os-nvidia/lib/libutils/ext/snprintk.c:545
    26a8:	14000017 	b	2704 <kprintf+0x1824>
/home/avees/optee_os-nvidia/lib/libutils/ext/snprintk.c:542
    26ac:	d503201f 	nop
    26b0:	14000002 	b	26b8 <kprintf+0x17d8>
/home/avees/optee_os-nvidia/lib/libutils/ext/snprintk.c:518
    26b4:	d503201f 	nop
/home/avees/optee_os-nvidia/lib/libutils/ext/snprintk.c:543
    26b8:	910283e0 	add	x0, sp, #0xa0
    26bc:	91009400 	add	x0, x0, #0x25
    26c0:	f9403fe1 	ldr	x1, [sp, #120]
    26c4:	cb010000 	sub	x0, x0, x1
    26c8:	b9006fe0 	str	w0, [sp, #108]
/home/avees/optee_os-nvidia/lib/libutils/ext/snprintk.c:545
    26cc:	1400000e 	b	2704 <kprintf+0x1824>
/home/avees/optee_os-nvidia/lib/libutils/ext/snprintk.c:547
    26d0:	b9404be0 	ldr	w0, [sp, #72]
    26d4:	7100001f 	cmp	w0, #0x0
    26d8:	54002060 	b.eq	2ae4 <kprintf+0x1c04>  // b.none
/home/avees/optee_os-nvidia/lib/libutils/ext/snprintk.c:550
    26dc:	910283e0 	add	x0, sp, #0xa0
    26e0:	f9003fe0 	str	x0, [sp, #120]
/home/avees/optee_os-nvidia/lib/libutils/ext/snprintk.c:551
    26e4:	b9404be0 	ldr	w0, [sp, #72]
    26e8:	12001c01 	and	w1, w0, #0xff
    26ec:	f9403fe0 	ldr	x0, [sp, #120]
    26f0:	39000001 	strb	w1, [x0]
/home/avees/optee_os-nvidia/lib/libutils/ext/snprintk.c:552
    26f4:	52800020 	mov	w0, #0x1                   	// #1
    26f8:	b9006fe0 	str	w0, [sp, #108]
/home/avees/optee_os-nvidia/lib/libutils/ext/snprintk.c:553
    26fc:	39011fff 	strb	wzr, [sp, #71]
/home/avees/optee_os-nvidia/lib/libutils/ext/snprintk.c:554
    2700:	d503201f 	nop
/home/avees/optee_os-nvidia/lib/libutils/ext/snprintk.c:571
    2704:	b94067e0 	ldr	w0, [sp, #100]
    2708:	b9406fe2 	ldr	w2, [sp, #108]
    270c:	b9406fe1 	ldr	w1, [sp, #108]
    2710:	6b00005f 	cmp	w2, w0
    2714:	1a80a020 	csel	w0, w1, w0, ge  // ge = tcont
    2718:	b9006be0 	str	w0, [sp, #104]
/home/avees/optee_os-nvidia/lib/libutils/ext/snprintk.c:572
    271c:	39411fe0 	ldrb	w0, [sp, #71]
    2720:	7100001f 	cmp	w0, #0x0
    2724:	540000a0 	b.eq	2738 <kprintf+0x1858>  // b.none
/home/avees/optee_os-nvidia/lib/libutils/ext/snprintk.c:573
    2728:	b9406be0 	ldr	w0, [sp, #104]
    272c:	11000400 	add	w0, w0, #0x1
    2730:	b9006be0 	str	w0, [sp, #104]
    2734:	14000008 	b	2754 <kprintf+0x1874>
/home/avees/optee_os-nvidia/lib/libutils/ext/snprintk.c:574
    2738:	b94053e0 	ldr	w0, [sp, #80]
    273c:	121f0000 	and	w0, w0, #0x2
    2740:	7100001f 	cmp	w0, #0x0
    2744:	54000080 	b.eq	2754 <kprintf+0x1874>  // b.none
/home/avees/optee_os-nvidia/lib/libutils/ext/snprintk.c:575
    2748:	b9406be0 	ldr	w0, [sp, #104]
    274c:	11000800 	add	w0, w0, #0x2
    2750:	b9006be0 	str	w0, [sp, #104]
/home/avees/optee_os-nvidia/lib/libutils/ext/snprintk.c:578
    2754:	b9405be0 	ldr	w0, [sp, #88]
    2758:	b9406be2 	ldr	w2, [sp, #104]
    275c:	b9406be1 	ldr	w1, [sp, #104]
    2760:	6b00005f 	cmp	w2, w0
    2764:	1a80a020 	csel	w0, w1, w0, ge  // ge = tcont
    2768:	b94057e1 	ldr	w1, [sp, #84]
    276c:	0b000020 	add	w0, w1, w0
    2770:	b90057e0 	str	w0, [sp, #84]
/home/avees/optee_os-nvidia/lib/libutils/ext/snprintk.c:581
    2774:	b94053e1 	ldr	w1, [sp, #80]
    2778:	52808080 	mov	w0, #0x404                 	// #1028
    277c:	0a000020 	and	w0, w1, w0
    2780:	7100001f 	cmp	w0, #0x0
    2784:	540003a1 	b.ne	27f8 <kprintf+0x1918>  // b.any
/home/avees/optee_os-nvidia/lib/libutils/ext/snprintk.c:582
    2788:	b9405be1 	ldr	w1, [sp, #88]
    278c:	b9406be0 	ldr	w0, [sp, #104]
    2790:	4b000020 	sub	w0, w1, w0
    2794:	b9004fe0 	str	w0, [sp, #76]
/home/avees/optee_os-nvidia/lib/libutils/ext/snprintk.c:583
    2798:	14000013 	b	27e4 <kprintf+0x1904>
/home/avees/optee_os-nvidia/lib/libutils/ext/snprintk.c:584
    279c:	b94037e0 	ldr	w0, [sp, #52]
    27a0:	7100201f 	cmp	w0, #0x8
    27a4:	54000201 	b.ne	27e4 <kprintf+0x1904>  // b.any
/home/avees/optee_os-nvidia/lib/libutils/ext/snprintk.c:584 (discriminator 1)
    27a8:	f94013e0 	ldr	x0, [sp, #32]
    27ac:	f100001f 	cmp	x0, #0x0
    27b0:	540001a0 	b.eq	27e4 <kprintf+0x1904>  // b.none
/home/avees/optee_os-nvidia/lib/libutils/ext/snprintk.c:584 (discriminator 2)
    27b4:	f94017e0 	ldr	x0, [sp, #40]
    27b8:	f100001f 	cmp	x0, #0x0
    27bc:	540000a0 	b.eq	27d0 <kprintf+0x18f0>  // b.none
/home/avees/optee_os-nvidia/lib/libutils/ext/snprintk.c:584 (discriminator 4)
    27c0:	f94013e1 	ldr	x1, [sp, #32]
    27c4:	f9404be0 	ldr	x0, [sp, #144]
    27c8:	eb00003f 	cmp	x1, x0
    27cc:	540000c2 	b.cs	27e4 <kprintf+0x1904>  // b.hs, b.nlast
/home/avees/optee_os-nvidia/lib/libutils/ext/snprintk.c:584 (discriminator 5)
    27d0:	f94013e0 	ldr	x0, [sp, #32]
    27d4:	91000401 	add	x1, x0, #0x1
    27d8:	f90013e1 	str	x1, [sp, #32]
    27dc:	52800401 	mov	w1, #0x20                  	// #32
    27e0:	39000001 	strb	w1, [x0]
/home/avees/optee_os-nvidia/lib/libutils/ext/snprintk.c:583
    27e4:	b9404fe0 	ldr	w0, [sp, #76]
    27e8:	51000401 	sub	w1, w0, #0x1
    27ec:	b9004fe1 	str	w1, [sp, #76]
    27f0:	7100001f 	cmp	w0, #0x0
    27f4:	54fffd4c 	b.gt	279c <kprintf+0x18bc>
/home/avees/optee_os-nvidia/lib/libutils/ext/snprintk.c:588
    27f8:	39411fe0 	ldrb	w0, [sp, #71]
    27fc:	7100001f 	cmp	w0, #0x0
    2800:	54000280 	b.eq	2850 <kprintf+0x1970>  // b.none
/home/avees/optee_os-nvidia/lib/libutils/ext/snprintk.c:589
    2804:	b94037e0 	ldr	w0, [sp, #52]
    2808:	7100201f 	cmp	w0, #0x8
    280c:	54000741 	b.ne	28f4 <kprintf+0x1a14>  // b.any
/home/avees/optee_os-nvidia/lib/libutils/ext/snprintk.c:589 (discriminator 1)
    2810:	f94013e0 	ldr	x0, [sp, #32]
    2814:	f100001f 	cmp	x0, #0x0
    2818:	540006e0 	b.eq	28f4 <kprintf+0x1a14>  // b.none
/home/avees/optee_os-nvidia/lib/libutils/ext/snprintk.c:589 (discriminator 2)
    281c:	f94017e0 	ldr	x0, [sp, #40]
    2820:	f100001f 	cmp	x0, #0x0
    2824:	540000a0 	b.eq	2838 <kprintf+0x1958>  // b.none
/home/avees/optee_os-nvidia/lib/libutils/ext/snprintk.c:589 (discriminator 4)
    2828:	f94013e1 	ldr	x1, [sp, #32]
    282c:	f9404be0 	ldr	x0, [sp, #144]
    2830:	eb00003f 	cmp	x1, x0
    2834:	54000602 	b.cs	28f4 <kprintf+0x1a14>  // b.hs, b.nlast
/home/avees/optee_os-nvidia/lib/libutils/ext/snprintk.c:589 (discriminator 5)
    2838:	f94013e0 	ldr	x0, [sp, #32]
    283c:	91000401 	add	x1, x0, #0x1
    2840:	f90013e1 	str	x1, [sp, #32]
    2844:	39411fe1 	ldrb	w1, [sp, #71]
    2848:	39000001 	strb	w1, [x0]
    284c:	1400002a 	b	28f4 <kprintf+0x1a14>
/home/avees/optee_os-nvidia/lib/libutils/ext/snprintk.c:590
    2850:	b94053e0 	ldr	w0, [sp, #80]
    2854:	121f0000 	and	w0, w0, #0x2
    2858:	7100001f 	cmp	w0, #0x0
    285c:	540004c0 	b.eq	28f4 <kprintf+0x1a14>  // b.none
/home/avees/optee_os-nvidia/lib/libutils/ext/snprintk.c:591
    2860:	b94037e0 	ldr	w0, [sp, #52]
    2864:	7100201f 	cmp	w0, #0x8
    2868:	54000201 	b.ne	28a8 <kprintf+0x19c8>  // b.any
/home/avees/optee_os-nvidia/lib/libutils/ext/snprintk.c:591 (discriminator 1)
    286c:	f94013e0 	ldr	x0, [sp, #32]
    2870:	f100001f 	cmp	x0, #0x0
    2874:	540001a0 	b.eq	28a8 <kprintf+0x19c8>  // b.none
/home/avees/optee_os-nvidia/lib/libutils/ext/snprintk.c:591 (discriminator 2)
    2878:	f94017e0 	ldr	x0, [sp, #40]
    287c:	f100001f 	cmp	x0, #0x0
    2880:	540000a0 	b.eq	2894 <kprintf+0x19b4>  // b.none
/home/avees/optee_os-nvidia/lib/libutils/ext/snprintk.c:591 (discriminator 4)
    2884:	f94013e1 	ldr	x1, [sp, #32]
    2888:	f9404be0 	ldr	x0, [sp, #144]
    288c:	eb00003f 	cmp	x1, x0
    2890:	540000c2 	b.cs	28a8 <kprintf+0x19c8>  // b.hs, b.nlast
/home/avees/optee_os-nvidia/lib/libutils/ext/snprintk.c:591 (discriminator 5)
    2894:	f94013e0 	ldr	x0, [sp, #32]
    2898:	91000401 	add	x1, x0, #0x1
    289c:	f90013e1 	str	x1, [sp, #32]
    28a0:	52800601 	mov	w1, #0x30                  	// #48
    28a4:	39000001 	strb	w1, [x0]
/home/avees/optee_os-nvidia/lib/libutils/ext/snprintk.c:592
    28a8:	b94037e0 	ldr	w0, [sp, #52]
    28ac:	7100201f 	cmp	w0, #0x8
    28b0:	54000221 	b.ne	28f4 <kprintf+0x1a14>  // b.any
/home/avees/optee_os-nvidia/lib/libutils/ext/snprintk.c:592 (discriminator 1)
    28b4:	f94013e0 	ldr	x0, [sp, #32]
    28b8:	f100001f 	cmp	x0, #0x0
    28bc:	540001c0 	b.eq	28f4 <kprintf+0x1a14>  // b.none
/home/avees/optee_os-nvidia/lib/libutils/ext/snprintk.c:592 (discriminator 2)
    28c0:	f94017e0 	ldr	x0, [sp, #40]
    28c4:	f100001f 	cmp	x0, #0x0
    28c8:	540000a0 	b.eq	28dc <kprintf+0x19fc>  // b.none
/home/avees/optee_os-nvidia/lib/libutils/ext/snprintk.c:592 (discriminator 4)
    28cc:	f94013e1 	ldr	x1, [sp, #32]
    28d0:	f9404be0 	ldr	x0, [sp, #144]
    28d4:	eb00003f 	cmp	x1, x0
    28d8:	540000e2 	b.cs	28f4 <kprintf+0x1a14>  // b.hs, b.nlast
/home/avees/optee_os-nvidia/lib/libutils/ext/snprintk.c:592 (discriminator 5)
    28dc:	f94013e0 	ldr	x0, [sp, #32]
    28e0:	91000401 	add	x1, x0, #0x1
    28e4:	f90013e1 	str	x1, [sp, #32]
    28e8:	b9404be1 	ldr	w1, [sp, #72]
    28ec:	12001c21 	and	w1, w1, #0xff
    28f0:	39000001 	strb	w1, [x0]
/home/avees/optee_os-nvidia/lib/libutils/ext/snprintk.c:596
    28f4:	b94053e1 	ldr	w1, [sp, #80]
    28f8:	52808080 	mov	w0, #0x404                 	// #1028
    28fc:	0a000020 	and	w0, w1, w0
    2900:	7110001f 	cmp	w0, #0x400
    2904:	540003a1 	b.ne	2978 <kprintf+0x1a98>  // b.any
/home/avees/optee_os-nvidia/lib/libutils/ext/snprintk.c:597
    2908:	b9405be1 	ldr	w1, [sp, #88]
    290c:	b9406be0 	ldr	w0, [sp, #104]
    2910:	4b000020 	sub	w0, w1, w0
    2914:	b9004fe0 	str	w0, [sp, #76]
/home/avees/optee_os-nvidia/lib/libutils/ext/snprintk.c:598
    2918:	14000013 	b	2964 <kprintf+0x1a84>
/home/avees/optee_os-nvidia/lib/libutils/ext/snprintk.c:599
    291c:	b94037e0 	ldr	w0, [sp, #52]
    2920:	7100201f 	cmp	w0, #0x8
    2924:	54000201 	b.ne	2964 <kprintf+0x1a84>  // b.any
/home/avees/optee_os-nvidia/lib/libutils/ext/snprintk.c:599 (discriminator 1)
    2928:	f94013e0 	ldr	x0, [sp, #32]
    292c:	f100001f 	cmp	x0, #0x0
    2930:	540001a0 	b.eq	2964 <kprintf+0x1a84>  // b.none
/home/avees/optee_os-nvidia/lib/libutils/ext/snprintk.c:599 (discriminator 2)
    2934:	f94017e0 	ldr	x0, [sp, #40]
    2938:	f100001f 	cmp	x0, #0x0
    293c:	540000a0 	b.eq	2950 <kprintf+0x1a70>  // b.none
/home/avees/optee_os-nvidia/lib/libutils/ext/snprintk.c:599 (discriminator 4)
    2940:	f94013e1 	ldr	x1, [sp, #32]
    2944:	f9404be0 	ldr	x0, [sp, #144]
    2948:	eb00003f 	cmp	x1, x0
    294c:	540000c2 	b.cs	2964 <kprintf+0x1a84>  // b.hs, b.nlast
/home/avees/optee_os-nvidia/lib/libutils/ext/snprintk.c:599 (discriminator 5)
    2950:	f94013e0 	ldr	x0, [sp, #32]
    2954:	91000401 	add	x1, x0, #0x1
    2958:	f90013e1 	str	x1, [sp, #32]
    295c:	52800601 	mov	w1, #0x30                  	// #48
    2960:	39000001 	strb	w1, [x0]
/home/avees/optee_os-nvidia/lib/libutils/ext/snprintk.c:598
    2964:	b9404fe0 	ldr	w0, [sp, #76]
    2968:	51000401 	sub	w1, w0, #0x1
    296c:	b9004fe1 	str	w1, [sp, #76]
    2970:	7100001f 	cmp	w0, #0x0
    2974:	54fffd4c 	b.gt	291c <kprintf+0x1a3c>
/home/avees/optee_os-nvidia/lib/libutils/ext/snprintk.c:603
    2978:	b94067e1 	ldr	w1, [sp, #100]
    297c:	b9406fe0 	ldr	w0, [sp, #108]
    2980:	4b000020 	sub	w0, w1, w0
    2984:	b9004fe0 	str	w0, [sp, #76]
/home/avees/optee_os-nvidia/lib/libutils/ext/snprintk.c:604
    2988:	14000013 	b	29d4 <kprintf+0x1af4>
/home/avees/optee_os-nvidia/lib/libutils/ext/snprintk.c:605
    298c:	b94037e0 	ldr	w0, [sp, #52]
    2990:	7100201f 	cmp	w0, #0x8
    2994:	54000201 	b.ne	29d4 <kprintf+0x1af4>  // b.any
/home/avees/optee_os-nvidia/lib/libutils/ext/snprintk.c:605 (discriminator 1)
    2998:	f94013e0 	ldr	x0, [sp, #32]
    299c:	f100001f 	cmp	x0, #0x0
    29a0:	540001a0 	b.eq	29d4 <kprintf+0x1af4>  // b.none
/home/avees/optee_os-nvidia/lib/libutils/ext/snprintk.c:605 (discriminator 2)
    29a4:	f94017e0 	ldr	x0, [sp, #40]
    29a8:	f100001f 	cmp	x0, #0x0
    29ac:	540000a0 	b.eq	29c0 <kprintf+0x1ae0>  // b.none
/home/avees/optee_os-nvidia/lib/libutils/ext/snprintk.c:605 (discriminator 4)
    29b0:	f94013e1 	ldr	x1, [sp, #32]
    29b4:	f9404be0 	ldr	x0, [sp, #144]
    29b8:	eb00003f 	cmp	x1, x0
    29bc:	540000c2 	b.cs	29d4 <kprintf+0x1af4>  // b.hs, b.nlast
/home/avees/optee_os-nvidia/lib/libutils/ext/snprintk.c:605 (discriminator 5)
    29c0:	f94013e0 	ldr	x0, [sp, #32]
    29c4:	91000401 	add	x1, x0, #0x1
    29c8:	f90013e1 	str	x1, [sp, #32]
    29cc:	52800601 	mov	w1, #0x30                  	// #48
    29d0:	39000001 	strb	w1, [x0]
/home/avees/optee_os-nvidia/lib/libutils/ext/snprintk.c:604
    29d4:	b9404fe0 	ldr	w0, [sp, #76]
    29d8:	51000401 	sub	w1, w0, #0x1
    29dc:	b9004fe1 	str	w1, [sp, #76]
    29e0:	7100001f 	cmp	w0, #0x0
    29e4:	54fffd4c 	b.gt	298c <kprintf+0x1aac>
/home/avees/optee_os-nvidia/lib/libutils/ext/snprintk.c:608
    29e8:	14000017 	b	2a44 <kprintf+0x1b64>
/home/avees/optee_os-nvidia/lib/libutils/ext/snprintk.c:609
    29ec:	b94037e0 	ldr	w0, [sp, #52]
    29f0:	7100201f 	cmp	w0, #0x8
    29f4:	54000221 	b.ne	2a38 <kprintf+0x1b58>  // b.any
/home/avees/optee_os-nvidia/lib/libutils/ext/snprintk.c:609 (discriminator 1)
    29f8:	f94013e0 	ldr	x0, [sp, #32]
    29fc:	f100001f 	cmp	x0, #0x0
    2a00:	540001c0 	b.eq	2a38 <kprintf+0x1b58>  // b.none
/home/avees/optee_os-nvidia/lib/libutils/ext/snprintk.c:609 (discriminator 2)
    2a04:	f94017e0 	ldr	x0, [sp, #40]
    2a08:	f100001f 	cmp	x0, #0x0
    2a0c:	540000a0 	b.eq	2a20 <kprintf+0x1b40>  // b.none
/home/avees/optee_os-nvidia/lib/libutils/ext/snprintk.c:609 (discriminator 4)
    2a10:	f94013e1 	ldr	x1, [sp, #32]
    2a14:	f9404be0 	ldr	x0, [sp, #144]
    2a18:	eb00003f 	cmp	x1, x0
    2a1c:	540000e2 	b.cs	2a38 <kprintf+0x1b58>  // b.hs, b.nlast
/home/avees/optee_os-nvidia/lib/libutils/ext/snprintk.c:609 (discriminator 5)
    2a20:	f94013e0 	ldr	x0, [sp, #32]
    2a24:	91000401 	add	x1, x0, #0x1
    2a28:	f90013e1 	str	x1, [sp, #32]
    2a2c:	f9403fe1 	ldr	x1, [sp, #120]
    2a30:	39400021 	ldrb	w1, [x1]
    2a34:	39000001 	strb	w1, [x0]
/home/avees/optee_os-nvidia/lib/libutils/ext/snprintk.c:608
    2a38:	f9403fe0 	ldr	x0, [sp, #120]
    2a3c:	91000400 	add	x0, x0, #0x1
    2a40:	f9003fe0 	str	x0, [sp, #120]
/home/avees/optee_os-nvidia/lib/libutils/ext/snprintk.c:608 (discriminator 1)
    2a44:	b9406fe0 	ldr	w0, [sp, #108]
    2a48:	51000401 	sub	w1, w0, #0x1
    2a4c:	b9006fe1 	str	w1, [sp, #108]
    2a50:	7100001f 	cmp	w0, #0x0
    2a54:	54fffcc1 	b.ne	29ec <kprintf+0x1b0c>  // b.any
/home/avees/optee_os-nvidia/lib/libutils/ext/snprintk.c:611
    2a58:	b94053e0 	ldr	w0, [sp, #80]
    2a5c:	121e0000 	and	w0, w0, #0x4
    2a60:	7100001f 	cmp	w0, #0x0
    2a64:	54ff2b00 	b.eq	fc4 <kprintf+0xe4>  // b.none
/home/avees/optee_os-nvidia/lib/libutils/ext/snprintk.c:612
    2a68:	b9405be1 	ldr	w1, [sp, #88]
    2a6c:	b9406be0 	ldr	w0, [sp, #104]
    2a70:	4b000020 	sub	w0, w1, w0
    2a74:	b9004fe0 	str	w0, [sp, #76]
/home/avees/optee_os-nvidia/lib/libutils/ext/snprintk.c:613
    2a78:	14000013 	b	2ac4 <kprintf+0x1be4>
/home/avees/optee_os-nvidia/lib/libutils/ext/snprintk.c:614
    2a7c:	b94037e0 	ldr	w0, [sp, #52]
    2a80:	7100201f 	cmp	w0, #0x8
    2a84:	54000201 	b.ne	2ac4 <kprintf+0x1be4>  // b.any
/home/avees/optee_os-nvidia/lib/libutils/ext/snprintk.c:614 (discriminator 1)
    2a88:	f94013e0 	ldr	x0, [sp, #32]
    2a8c:	f100001f 	cmp	x0, #0x0
    2a90:	540001a0 	b.eq	2ac4 <kprintf+0x1be4>  // b.none
/home/avees/optee_os-nvidia/lib/libutils/ext/snprintk.c:614 (discriminator 2)
    2a94:	f94017e0 	ldr	x0, [sp, #40]
    2a98:	f100001f 	cmp	x0, #0x0
    2a9c:	540000a0 	b.eq	2ab0 <kprintf+0x1bd0>  // b.none
/home/avees/optee_os-nvidia/lib/libutils/ext/snprintk.c:614 (discriminator 4)
    2aa0:	f94013e1 	ldr	x1, [sp, #32]
    2aa4:	f9404be0 	ldr	x0, [sp, #144]
    2aa8:	eb00003f 	cmp	x1, x0
    2aac:	540000c2 	b.cs	2ac4 <kprintf+0x1be4>  // b.hs, b.nlast
/home/avees/optee_os-nvidia/lib/libutils/ext/snprintk.c:614 (discriminator 5)
    2ab0:	f94013e0 	ldr	x0, [sp, #32]
    2ab4:	91000401 	add	x1, x0, #0x1
    2ab8:	f90013e1 	str	x1, [sp, #32]
    2abc:	52800401 	mov	w1, #0x20                  	// #32
    2ac0:	39000001 	strb	w1, [x0]
/home/avees/optee_os-nvidia/lib/libutils/ext/snprintk.c:613
    2ac4:	b9404fe0 	ldr	w0, [sp, #76]
    2ac8:	51000401 	sub	w1, w0, #0x1
    2acc:	b9004fe1 	str	w1, [sp, #76]
    2ad0:	7100001f 	cmp	w0, #0x0
    2ad4:	54fffd4c 	b.gt	2a7c <kprintf+0x1b9c>
/home/avees/optee_os-nvidia/lib/libutils/ext/snprintk.c:281
    2ad8:	17fff93b 	b	fc4 <kprintf+0xe4>
/home/avees/optee_os-nvidia/lib/libutils/ext/snprintk.c:286
    2adc:	d503201f 	nop
    2ae0:	14000002 	b	2ae8 <kprintf+0x1c08>
/home/avees/optee_os-nvidia/lib/libutils/ext/snprintk.c:548
    2ae4:	d503201f 	nop
/home/avees/optee_os-nvidia/lib/libutils/ext/snprintk.c:619
    2ae8:	b94037e0 	ldr	w0, [sp, #52]
    2aec:	7100201f 	cmp	w0, #0x8
    2af0:	540000e1 	b.ne	2b0c <kprintf+0x1c2c>  // b.any
/home/avees/optee_os-nvidia/lib/libutils/ext/snprintk.c:619 (discriminator 1)
    2af4:	f94017e0 	ldr	x0, [sp, #40]
    2af8:	f100001f 	cmp	x0, #0x0
    2afc:	54000080 	b.eq	2b0c <kprintf+0x1c2c>  // b.none
/home/avees/optee_os-nvidia/lib/libutils/ext/snprintk.c:620
    2b00:	f94017e0 	ldr	x0, [sp, #40]
    2b04:	f94013e1 	ldr	x1, [sp, #32]
    2b08:	f9000001 	str	x1, [x0]
/home/avees/optee_os-nvidia/lib/libutils/ext/snprintk.c:621
    2b0c:	b94057e0 	ldr	w0, [sp, #84]
    2b10:	2a0003e1 	mov	w1, w0
/home/avees/optee_os-nvidia/lib/libutils/ext/snprintk.c:622
    2b14:	90000100 	adrp	x0, 22000 <_DYNAMIC>
    2b18:	f9409800 	ldr	x0, [x0, #304]
    2b1c:	f94067e2 	ldr	x2, [sp, #200]
    2b20:	f9400003 	ldr	x3, [x0]
    2b24:	eb030042 	subs	x2, x2, x3
    2b28:	d2800003 	mov	x3, #0x0                   	// #0
    2b2c:	54000040 	b.eq	2b34 <kprintf+0x1c54>  // b.none
    2b30:	97fff684 	bl	540 <__stack_chk_fail>
    2b34:	2a0103e0 	mov	w0, w1
    2b38:	f9400bf3 	ldr	x19, [sp, #16]
    2b3c:	a8cd7bfd 	ldp	x29, x30, [sp], #208
    2b40:	d65f03c0 	ret

0000000000002b44 <memchr>:
memchr():
/home/avees/optee_os-nvidia/lib/libutils/isoc/newlib/memchr.c:107
    2b44:	d10103ff 	sub	sp, sp, #0x40
    2b48:	f9000fe0 	str	x0, [sp, #24]
    2b4c:	b90017e1 	str	w1, [sp, #20]
    2b50:	f90007e2 	str	x2, [sp, #8]
/home/avees/optee_os-nvidia/lib/libutils/isoc/newlib/memchr.c:108
    2b54:	f9400fe0 	ldr	x0, [sp, #24]
    2b58:	f90017e0 	str	x0, [sp, #40]
/home/avees/optee_os-nvidia/lib/libutils/isoc/newlib/memchr.c:109
    2b5c:	b94017e0 	ldr	w0, [sp, #20]
    2b60:	39008fe0 	strb	w0, [sp, #35]
/home/avees/optee_os-nvidia/lib/libutils/isoc/newlib/memchr.c:116
    2b64:	14000012 	b	2bac <memchr+0x68>
/home/avees/optee_os-nvidia/lib/libutils/isoc/newlib/memchr.c:117
    2b68:	f94007e0 	ldr	x0, [sp, #8]
    2b6c:	d1000401 	sub	x1, x0, #0x1
    2b70:	f90007e1 	str	x1, [sp, #8]
    2b74:	f100001f 	cmp	x0, #0x0
    2b78:	54000061 	b.ne	2b84 <memchr+0x40>  // b.any
/home/avees/optee_os-nvidia/lib/libutils/isoc/newlib/memchr.c:118
    2b7c:	d2800000 	mov	x0, #0x0                   	// #0
    2b80:	1400005d 	b	2cf4 <memchr+0x1b0>
/home/avees/optee_os-nvidia/lib/libutils/isoc/newlib/memchr.c:119
    2b84:	f94017e0 	ldr	x0, [sp, #40]
    2b88:	39400000 	ldrb	w0, [x0]
    2b8c:	39408fe1 	ldrb	w1, [sp, #35]
    2b90:	6b00003f 	cmp	w1, w0
    2b94:	54000061 	b.ne	2ba0 <memchr+0x5c>  // b.any
/home/avees/optee_os-nvidia/lib/libutils/isoc/newlib/memchr.c:120
    2b98:	f94017e0 	ldr	x0, [sp, #40]
    2b9c:	14000056 	b	2cf4 <memchr+0x1b0>
/home/avees/optee_os-nvidia/lib/libutils/isoc/newlib/memchr.c:121
    2ba0:	f94017e0 	ldr	x0, [sp, #40]
    2ba4:	91000400 	add	x0, x0, #0x1
    2ba8:	f90017e0 	str	x0, [sp, #40]
/home/avees/optee_os-nvidia/lib/libutils/isoc/newlib/memchr.c:116
    2bac:	f94017e0 	ldr	x0, [sp, #40]
    2bb0:	92400800 	and	x0, x0, #0x7
    2bb4:	f100001f 	cmp	x0, #0x0
    2bb8:	54fffd81 	b.ne	2b68 <memchr+0x24>  // b.any
/home/avees/optee_os-nvidia/lib/libutils/isoc/newlib/memchr.c:124
    2bbc:	f94007e0 	ldr	x0, [sp, #8]
    2bc0:	f1001c1f 	cmp	x0, #0x7
    2bc4:	540008c9 	b.ls	2cdc <memchr+0x198>  // b.plast
/home/avees/optee_os-nvidia/lib/libutils/isoc/newlib/memchr.c:133
    2bc8:	f94017e0 	ldr	x0, [sp, #40]
    2bcc:	f9001be0 	str	x0, [sp, #48]
/home/avees/optee_os-nvidia/lib/libutils/isoc/newlib/memchr.c:134
    2bd0:	39408fe0 	ldrb	w0, [sp, #35]
    2bd4:	53185c01 	lsl	w1, w0, #8
    2bd8:	39408fe0 	ldrb	w0, [sp, #35]
    2bdc:	2a000020 	orr	w0, w1, w0
    2be0:	93407c00 	sxtw	x0, w0
    2be4:	f9001fe0 	str	x0, [sp, #56]
/home/avees/optee_os-nvidia/lib/libutils/isoc/newlib/memchr.c:135
    2be8:	f9401fe0 	ldr	x0, [sp, #56]
    2bec:	d370bc00 	lsl	x0, x0, #16
    2bf0:	f9401fe1 	ldr	x1, [sp, #56]
    2bf4:	aa000020 	orr	x0, x1, x0
    2bf8:	f9001fe0 	str	x0, [sp, #56]
/home/avees/optee_os-nvidia/lib/libutils/isoc/newlib/memchr.c:136
    2bfc:	52800400 	mov	w0, #0x20                  	// #32
    2c00:	b90027e0 	str	w0, [sp, #36]
    2c04:	1400000a 	b	2c2c <memchr+0xe8>
/home/avees/optee_os-nvidia/lib/libutils/isoc/newlib/memchr.c:137 (discriminator 3)
    2c08:	b94027e0 	ldr	w0, [sp, #36]
    2c0c:	f9401fe1 	ldr	x1, [sp, #56]
    2c10:	9ac02020 	lsl	x0, x1, x0
    2c14:	f9401fe1 	ldr	x1, [sp, #56]
    2c18:	aa000020 	orr	x0, x1, x0
    2c1c:	f9001fe0 	str	x0, [sp, #56]
/home/avees/optee_os-nvidia/lib/libutils/isoc/newlib/memchr.c:136 (discriminator 3)
    2c20:	b94027e0 	ldr	w0, [sp, #36]
    2c24:	531f7800 	lsl	w0, w0, #1
    2c28:	b90027e0 	str	w0, [sp, #36]
/home/avees/optee_os-nvidia/lib/libutils/isoc/newlib/memchr.c:136 (discriminator 1)
    2c2c:	b94027e0 	ldr	w0, [sp, #36]
    2c30:	7100fc1f 	cmp	w0, #0x3f
    2c34:	54fffea9 	b.ls	2c08 <memchr+0xc4>  // b.plast
/home/avees/optee_os-nvidia/lib/libutils/isoc/newlib/memchr.c:139
    2c38:	14000017 	b	2c94 <memchr+0x150>
/home/avees/optee_os-nvidia/lib/libutils/isoc/newlib/memchr.c:140
    2c3c:	f9401be0 	ldr	x0, [sp, #48]
    2c40:	f9400001 	ldr	x1, [x0]
    2c44:	f9401fe0 	ldr	x0, [sp, #56]
    2c48:	ca000021 	eor	x1, x1, x0
    2c4c:	b207dbe0 	mov	x0, #0xfefefefefefefefe    	// #-72340172838076674
    2c50:	f29fdfe0 	movk	x0, #0xfeff
    2c54:	8b000021 	add	x1, x1, x0
    2c58:	f9401be0 	ldr	x0, [sp, #48]
    2c5c:	f9400002 	ldr	x2, [x0]
    2c60:	f9401fe0 	ldr	x0, [sp, #56]
    2c64:	ca000040 	eor	x0, x2, x0
    2c68:	aa2003e0 	mvn	x0, x0
    2c6c:	8a000020 	and	x0, x1, x0
    2c70:	9201c000 	and	x0, x0, #0x8080808080808080
    2c74:	f100001f 	cmp	x0, #0x0
    2c78:	54000161 	b.ne	2ca4 <memchr+0x160>  // b.any
/home/avees/optee_os-nvidia/lib/libutils/isoc/newlib/memchr.c:142
    2c7c:	f94007e0 	ldr	x0, [sp, #8]
    2c80:	d1002000 	sub	x0, x0, #0x8
    2c84:	f90007e0 	str	x0, [sp, #8]
/home/avees/optee_os-nvidia/lib/libutils/isoc/newlib/memchr.c:143
    2c88:	f9401be0 	ldr	x0, [sp, #48]
    2c8c:	91002000 	add	x0, x0, #0x8
    2c90:	f9001be0 	str	x0, [sp, #48]
/home/avees/optee_os-nvidia/lib/libutils/isoc/newlib/memchr.c:139
    2c94:	f94007e0 	ldr	x0, [sp, #8]
    2c98:	f1001c1f 	cmp	x0, #0x7
    2c9c:	54fffd08 	b.hi	2c3c <memchr+0xf8>  // b.pmore
    2ca0:	14000002 	b	2ca8 <memchr+0x164>
/home/avees/optee_os-nvidia/lib/libutils/isoc/newlib/memchr.c:141
    2ca4:	d503201f 	nop
/home/avees/optee_os-nvidia/lib/libutils/isoc/newlib/memchr.c:149
    2ca8:	f9401be0 	ldr	x0, [sp, #48]
    2cac:	f90017e0 	str	x0, [sp, #40]
/home/avees/optee_os-nvidia/lib/libutils/isoc/newlib/memchr.c:153
    2cb0:	1400000b 	b	2cdc <memchr+0x198>
/home/avees/optee_os-nvidia/lib/libutils/isoc/newlib/memchr.c:154
    2cb4:	f94017e0 	ldr	x0, [sp, #40]
    2cb8:	39400000 	ldrb	w0, [x0]
    2cbc:	39408fe1 	ldrb	w1, [sp, #35]
    2cc0:	6b00003f 	cmp	w1, w0
    2cc4:	54000061 	b.ne	2cd0 <memchr+0x18c>  // b.any
/home/avees/optee_os-nvidia/lib/libutils/isoc/newlib/memchr.c:155
    2cc8:	f94017e0 	ldr	x0, [sp, #40]
    2ccc:	1400000a 	b	2cf4 <memchr+0x1b0>
/home/avees/optee_os-nvidia/lib/libutils/isoc/newlib/memchr.c:156
    2cd0:	f94017e0 	ldr	x0, [sp, #40]
    2cd4:	91000400 	add	x0, x0, #0x1
    2cd8:	f90017e0 	str	x0, [sp, #40]
/home/avees/optee_os-nvidia/lib/libutils/isoc/newlib/memchr.c:153
    2cdc:	f94007e0 	ldr	x0, [sp, #8]
    2ce0:	d1000401 	sub	x1, x0, #0x1
    2ce4:	f90007e1 	str	x1, [sp, #8]
    2ce8:	f100001f 	cmp	x0, #0x0
    2cec:	54fffe41 	b.ne	2cb4 <memchr+0x170>  // b.any
/home/avees/optee_os-nvidia/lib/libutils/isoc/newlib/memchr.c:159
    2cf0:	d2800000 	mov	x0, #0x0                   	// #0
/home/avees/optee_os-nvidia/lib/libutils/isoc/newlib/memchr.c:160
    2cf4:	910103ff 	add	sp, sp, #0x40
    2cf8:	d65f03c0 	ret

0000000000002cfc <strlen>:
strlen():
/home/avees/optee_os-nvidia/lib/libutils/isoc/newlib/strlen.c:92
    2cfc:	d10083ff 	sub	sp, sp, #0x20
    2d00:	f90007e0 	str	x0, [sp, #8]
/home/avees/optee_os-nvidia/lib/libutils/isoc/newlib/strlen.c:93
    2d04:	f94007e0 	ldr	x0, [sp, #8]
    2d08:	f9000fe0 	str	x0, [sp, #24]
/home/avees/optee_os-nvidia/lib/libutils/isoc/newlib/strlen.c:99
    2d0c:	1400000c 	b	2d3c <strlen+0x40>
/home/avees/optee_os-nvidia/lib/libutils/isoc/newlib/strlen.c:100
    2d10:	f94007e0 	ldr	x0, [sp, #8]
    2d14:	39400000 	ldrb	w0, [x0]
    2d18:	7100001f 	cmp	w0, #0x0
    2d1c:	540000a1 	b.ne	2d30 <strlen+0x34>  // b.any
/home/avees/optee_os-nvidia/lib/libutils/isoc/newlib/strlen.c:101
    2d20:	f94007e1 	ldr	x1, [sp, #8]
    2d24:	f9400fe0 	ldr	x0, [sp, #24]
    2d28:	cb000020 	sub	x0, x1, x0
    2d2c:	14000027 	b	2dc8 <strlen+0xcc>
/home/avees/optee_os-nvidia/lib/libutils/isoc/newlib/strlen.c:102
    2d30:	f94007e0 	ldr	x0, [sp, #8]
    2d34:	91000400 	add	x0, x0, #0x1
    2d38:	f90007e0 	str	x0, [sp, #8]
/home/avees/optee_os-nvidia/lib/libutils/isoc/newlib/strlen.c:99
    2d3c:	f94007e0 	ldr	x0, [sp, #8]
    2d40:	92400800 	and	x0, x0, #0x7
    2d44:	f100001f 	cmp	x0, #0x0
    2d48:	54fffe41 	b.ne	2d10 <strlen+0x14>  // b.any
/home/avees/optee_os-nvidia/lib/libutils/isoc/newlib/strlen.c:107
    2d4c:	f94007e0 	ldr	x0, [sp, #8]
    2d50:	f9000be0 	str	x0, [sp, #16]
/home/avees/optee_os-nvidia/lib/libutils/isoc/newlib/strlen.c:108
    2d54:	14000004 	b	2d64 <strlen+0x68>
/home/avees/optee_os-nvidia/lib/libutils/isoc/newlib/strlen.c:109
    2d58:	f9400be0 	ldr	x0, [sp, #16]
    2d5c:	91002000 	add	x0, x0, #0x8
    2d60:	f9000be0 	str	x0, [sp, #16]
/home/avees/optee_os-nvidia/lib/libutils/isoc/newlib/strlen.c:108
    2d64:	f9400be0 	ldr	x0, [sp, #16]
    2d68:	f9400001 	ldr	x1, [x0]
    2d6c:	b207dbe0 	mov	x0, #0xfefefefefefefefe    	// #-72340172838076674
    2d70:	f29fdfe0 	movk	x0, #0xfeff
    2d74:	8b000021 	add	x1, x1, x0
    2d78:	f9400be0 	ldr	x0, [sp, #16]
    2d7c:	f9400000 	ldr	x0, [x0]
    2d80:	aa2003e0 	mvn	x0, x0
    2d84:	8a000020 	and	x0, x1, x0
    2d88:	9201c000 	and	x0, x0, #0x8080808080808080
    2d8c:	f100001f 	cmp	x0, #0x0
    2d90:	54fffe40 	b.eq	2d58 <strlen+0x5c>  // b.none
/home/avees/optee_os-nvidia/lib/libutils/isoc/newlib/strlen.c:113
    2d94:	f9400be0 	ldr	x0, [sp, #16]
    2d98:	f90007e0 	str	x0, [sp, #8]
/home/avees/optee_os-nvidia/lib/libutils/isoc/newlib/strlen.c:117
    2d9c:	14000004 	b	2dac <strlen+0xb0>
/home/avees/optee_os-nvidia/lib/libutils/isoc/newlib/strlen.c:118
    2da0:	f94007e0 	ldr	x0, [sp, #8]
    2da4:	91000400 	add	x0, x0, #0x1
    2da8:	f90007e0 	str	x0, [sp, #8]
/home/avees/optee_os-nvidia/lib/libutils/isoc/newlib/strlen.c:117
    2dac:	f94007e0 	ldr	x0, [sp, #8]
    2db0:	39400000 	ldrb	w0, [x0]
    2db4:	7100001f 	cmp	w0, #0x0
    2db8:	54ffff41 	b.ne	2da0 <strlen+0xa4>  // b.any
/home/avees/optee_os-nvidia/lib/libutils/isoc/newlib/strlen.c:119
    2dbc:	f94007e1 	ldr	x1, [sp, #8]
    2dc0:	f9400fe0 	ldr	x0, [sp, #24]
    2dc4:	cb000020 	sub	x0, x1, x0
/home/avees/optee_os-nvidia/lib/libutils/isoc/newlib/strlen.c:120
    2dc8:	910083ff 	add	sp, sp, #0x20
    2dcc:	d65f03c0 	ret

0000000000002dd0 <trace_ext_puts>:
trace_ext_puts():
/home/avees/optee_os-nvidia/lib/libutee/trace_ext.c:22
    2dd0:	a9be7bfd 	stp	x29, x30, [sp, #-32]!
    2dd4:	910003fd 	mov	x29, sp
    2dd8:	f9000fe0 	str	x0, [sp, #24]
/home/avees/optee_os-nvidia/lib/libutee/trace_ext.c:26
    2ddc:	f9400fe0 	ldr	x0, [sp, #24]
    2de0:	97ffffc7 	bl	2cfc <strlen>
    2de4:	aa0003e1 	mov	x1, x0
    2de8:	f9400fe0 	ldr	x0, [sp, #24]
    2dec:	94001ef1 	bl	a9b0 <_utee_log>
/home/avees/optee_os-nvidia/lib/libutee/trace_ext.c:28
    2df0:	d503201f 	nop
    2df4:	a8c27bfd 	ldp	x29, x30, [sp], #32
    2df8:	d65f03c0 	ret

0000000000002dfc <trace_ext_get_thread_id>:
trace_ext_get_thread_id():
/home/avees/optee_os-nvidia/lib/libutee/trace_ext.c:32
    2dfc:	12800000 	mov	w0, #0xffffffff            	// #-1
/home/avees/optee_os-nvidia/lib/libutee/trace_ext.c:33
    2e00:	d65f03c0 	ret

0000000000002e04 <printf>:
printf():
/home/avees/optee_os-nvidia/lib/libutee/trace_ext.c:41
    2e04:	d108c3ff 	sub	sp, sp, #0x230
    2e08:	a9007bfd 	stp	x29, x30, [sp]
    2e0c:	910003fd 	mov	x29, sp
    2e10:	f9001fe0 	str	x0, [sp, #56]
    2e14:	f900ffe1 	str	x1, [sp, #504]
    2e18:	f90103e2 	str	x2, [sp, #512]
    2e1c:	f90107e3 	str	x3, [sp, #520]
    2e20:	f9010be4 	str	x4, [sp, #528]
    2e24:	f9010fe5 	str	x5, [sp, #536]
    2e28:	f90113e6 	str	x6, [sp, #544]
    2e2c:	f90117e7 	str	x7, [sp, #552]
    2e30:	3d805fe0 	str	q0, [sp, #368]
    2e34:	3d8063e1 	str	q1, [sp, #384]
    2e38:	3d8067e2 	str	q2, [sp, #400]
    2e3c:	3d806be3 	str	q3, [sp, #416]
    2e40:	3d806fe4 	str	q4, [sp, #432]
    2e44:	3d8073e5 	str	q5, [sp, #448]
    2e48:	3d8077e6 	str	q6, [sp, #464]
    2e4c:	3d807be7 	str	q7, [sp, #480]
    2e50:	90000100 	adrp	x0, 22000 <_DYNAMIC>
    2e54:	f9409800 	ldr	x0, [x0, #304]
    2e58:	f9400001 	ldr	x1, [x0]
    2e5c:	f900b7e1 	str	x1, [sp, #360]
    2e60:	d2800001 	mov	x1, #0x0                   	// #0
/home/avees/optee_os-nvidia/lib/libutee/trace_ext.c:46
    2e64:	97fff5cd 	bl	598 <trace_get_level>
    2e68:	7100001f 	cmp	w0, #0x0
    2e6c:	5400006c 	b.gt	2e78 <printf+0x74>
/home/avees/optee_os-nvidia/lib/libutee/trace_ext.c:47
    2e70:	52800000 	mov	w0, #0x0                   	// #0
    2e74:	14000022 	b	2efc <printf+0xf8>
/home/avees/optee_os-nvidia/lib/libutee/trace_ext.c:49
    2e78:	9108c3e0 	add	x0, sp, #0x230
    2e7c:	f90027e0 	str	x0, [sp, #72]
    2e80:	9108c3e0 	add	x0, sp, #0x230
    2e84:	f9002be0 	str	x0, [sp, #80]
    2e88:	9107c3e0 	add	x0, sp, #0x1f0
    2e8c:	f9002fe0 	str	x0, [sp, #88]
    2e90:	128006e0 	mov	w0, #0xffffffc8            	// #-56
    2e94:	b90063e0 	str	w0, [sp, #96]
    2e98:	12800fe0 	mov	w0, #0xffffff80            	// #-128
    2e9c:	b90067e0 	str	w0, [sp, #100]
/home/avees/optee_os-nvidia/lib/libutee/trace_ext.c:50
    2ea0:	f94027e0 	ldr	x0, [sp, #72]
    2ea4:	f9000be0 	str	x0, [sp, #16]
    2ea8:	f9402be0 	ldr	x0, [sp, #80]
    2eac:	f9000fe0 	str	x0, [sp, #24]
    2eb0:	f9402fe0 	ldr	x0, [sp, #88]
    2eb4:	f90013e0 	str	x0, [sp, #32]
    2eb8:	f94033e0 	ldr	x0, [sp, #96]
    2ebc:	f90017e0 	str	x0, [sp, #40]
    2ec0:	910043e1 	add	x1, sp, #0x10
    2ec4:	9101a3e0 	add	x0, sp, #0x68
    2ec8:	aa0103e3 	mov	x3, x1
    2ecc:	f9401fe2 	ldr	x2, [sp, #56]
    2ed0:	d2802001 	mov	x1, #0x100                 	// #256
    2ed4:	9400652c 	bl	1c384 <vsnprintf>
    2ed8:	b90047e0 	str	w0, [sp, #68]
/home/avees/optee_os-nvidia/lib/libutee/trace_ext.c:53
    2edc:	b94047e0 	ldr	w0, [sp, #68]
    2ee0:	7100001f 	cmp	w0, #0x0
    2ee4:	5400006a 	b.ge	2ef0 <printf+0xec>  // b.tcont
/home/avees/optee_os-nvidia/lib/libutee/trace_ext.c:54
    2ee8:	b94047e0 	ldr	w0, [sp, #68]
    2eec:	14000004 	b	2efc <printf+0xf8>
/home/avees/optee_os-nvidia/lib/libutee/trace_ext.c:56
    2ef0:	9101a3e0 	add	x0, sp, #0x68
    2ef4:	97ffffb7 	bl	2dd0 <trace_ext_puts>
/home/avees/optee_os-nvidia/lib/libutee/trace_ext.c:58
    2ef8:	b94047e0 	ldr	w0, [sp, #68]
    2efc:	2a0003e1 	mov	w1, w0
/home/avees/optee_os-nvidia/lib/libutee/trace_ext.c:59 (discriminator 1)
    2f00:	90000100 	adrp	x0, 22000 <_DYNAMIC>
    2f04:	f9409800 	ldr	x0, [x0, #304]
    2f08:	f940b7e2 	ldr	x2, [sp, #360]
    2f0c:	f9400003 	ldr	x3, [x0]
    2f10:	eb030042 	subs	x2, x2, x3
    2f14:	d2800003 	mov	x3, #0x0                   	// #0
    2f18:	54000040 	b.eq	2f20 <printf+0x11c>  // b.none
/home/avees/optee_os-nvidia/lib/libutee/trace_ext.c:59
    2f1c:	97fff589 	bl	540 <__stack_chk_fail>
    2f20:	2a0103e0 	mov	w0, w1
    2f24:	a9407bfd 	ldp	x29, x30, [sp]
    2f28:	9108c3ff 	add	sp, sp, #0x230
    2f2c:	d65f03c0 	ret

0000000000002f30 <puts>:
puts():
/home/avees/optee_os-nvidia/lib/libutee/trace_ext.c:62
    2f30:	a9be7bfd 	stp	x29, x30, [sp, #-32]!
    2f34:	910003fd 	mov	x29, sp
    2f38:	f9000fe0 	str	x0, [sp, #24]
/home/avees/optee_os-nvidia/lib/libutee/trace_ext.c:63
    2f3c:	97fff597 	bl	598 <trace_get_level>
    2f40:	7100001f 	cmp	w0, #0x0
    2f44:	540000cd 	b.le	2f5c <puts+0x2c>
/home/avees/optee_os-nvidia/lib/libutee/trace_ext.c:64
    2f48:	f9400fe0 	ldr	x0, [sp, #24]
    2f4c:	97ffffa1 	bl	2dd0 <trace_ext_puts>
/home/avees/optee_os-nvidia/lib/libutee/trace_ext.c:65
    2f50:	d00000e0 	adrp	x0, 20000 <HEXDIGITS+0x120>
    2f54:	91030000 	add	x0, x0, #0xc0
    2f58:	97ffff9e 	bl	2dd0 <trace_ext_puts>
/home/avees/optee_os-nvidia/lib/libutee/trace_ext.c:67
    2f5c:	52800020 	mov	w0, #0x1                   	// #1
/home/avees/optee_os-nvidia/lib/libutee/trace_ext.c:68
    2f60:	a8c27bfd 	ldp	x29, x30, [sp], #32
    2f64:	d65f03c0 	ret

0000000000002f68 <putchar>:
putchar():
/home/avees/optee_os-nvidia/lib/libutee/trace_ext.c:71
    2f68:	a9bd7bfd 	stp	x29, x30, [sp, #-48]!
    2f6c:	910003fd 	mov	x29, sp
    2f70:	b9001fe0 	str	w0, [sp, #28]
    2f74:	90000100 	adrp	x0, 22000 <_DYNAMIC>
    2f78:	f9409800 	ldr	x0, [x0, #304]
    2f7c:	f9400001 	ldr	x1, [x0]
    2f80:	f90017e1 	str	x1, [sp, #40]
    2f84:	d2800001 	mov	x1, #0x0                   	// #0
/home/avees/optee_os-nvidia/lib/libutee/trace_ext.c:72
    2f88:	b9401fe0 	ldr	w0, [sp, #28]
    2f8c:	12001c00 	and	w0, w0, #0xff
    2f90:	390083e0 	strb	w0, [sp, #32]
    2f94:	390087ff 	strb	wzr, [sp, #33]
/home/avees/optee_os-nvidia/lib/libutee/trace_ext.c:74
    2f98:	97fff580 	bl	598 <trace_get_level>
    2f9c:	7100001f 	cmp	w0, #0x0
    2fa0:	5400006d 	b.le	2fac <putchar+0x44>
/home/avees/optee_os-nvidia/lib/libutee/trace_ext.c:75
    2fa4:	910083e0 	add	x0, sp, #0x20
    2fa8:	97ffff8a 	bl	2dd0 <trace_ext_puts>
/home/avees/optee_os-nvidia/lib/libutee/trace_ext.c:81
    2fac:	b9401fe0 	ldr	w0, [sp, #28]
    2fb0:	12001c00 	and	w0, w0, #0xff
    2fb4:	2a0003e1 	mov	w1, w0
/home/avees/optee_os-nvidia/lib/libutee/trace_ext.c:82
    2fb8:	90000100 	adrp	x0, 22000 <_DYNAMIC>
    2fbc:	f9409800 	ldr	x0, [x0, #304]
    2fc0:	f94017e2 	ldr	x2, [sp, #40]
    2fc4:	f9400003 	ldr	x3, [x0]
    2fc8:	eb030042 	subs	x2, x2, x3
    2fcc:	d2800003 	mov	x3, #0x0                   	// #0
    2fd0:	54000040 	b.eq	2fd8 <putchar+0x70>  // b.none
    2fd4:	97fff55b 	bl	540 <__stack_chk_fail>
    2fd8:	2a0103e0 	mov	w0, w1
    2fdc:	a8c37bfd 	ldp	x29, x30, [sp], #48
    2fe0:	d65f03c0 	ret

0000000000002fe4 <__utee_from_attr>:
__utee_from_attr():
/home/avees/optee_os-nvidia/lib/libutee/tee_api_objects.c:16
    2fe4:	d100c3ff 	sub	sp, sp, #0x30
    2fe8:	f9000fe0 	str	x0, [sp, #24]
    2fec:	f9000be1 	str	x1, [sp, #16]
    2ff0:	b9000fe2 	str	w2, [sp, #12]
/home/avees/optee_os-nvidia/lib/libutee/tee_api_objects.c:19
    2ff4:	f90017ff 	str	xzr, [sp, #40]
    2ff8:	1400006f 	b	31b4 <__utee_from_attr+0x1d0>
/home/avees/optee_os-nvidia/lib/libutee/tee_api_objects.c:20
    2ffc:	f94017e1 	ldr	x1, [sp, #40]
    3000:	aa0103e0 	mov	x0, x1
    3004:	d37ff800 	lsl	x0, x0, #1
    3008:	8b010000 	add	x0, x0, x1
    300c:	d37df000 	lsl	x0, x0, #3
    3010:	aa0003e1 	mov	x1, x0
    3014:	f9400be0 	ldr	x0, [sp, #16]
    3018:	8b010002 	add	x2, x0, x1
    301c:	f94017e1 	ldr	x1, [sp, #40]
    3020:	aa0103e0 	mov	x0, x1
    3024:	d37ff800 	lsl	x0, x0, #1
    3028:	8b010000 	add	x0, x0, x1
    302c:	d37df000 	lsl	x0, x0, #3
    3030:	aa0003e1 	mov	x1, x0
    3034:	f9400fe0 	ldr	x0, [sp, #24]
    3038:	8b010000 	add	x0, x0, x1
    303c:	b9400041 	ldr	w1, [x2]
    3040:	b9001001 	str	w1, [x0, #16]
/home/avees/optee_os-nvidia/lib/libutee/tee_api_objects.c:21
    3044:	f94017e1 	ldr	x1, [sp, #40]
    3048:	aa0103e0 	mov	x0, x1
    304c:	d37ff800 	lsl	x0, x0, #1
    3050:	8b010000 	add	x0, x0, x1
    3054:	d37df000 	lsl	x0, x0, #3
    3058:	aa0003e1 	mov	x1, x0
    305c:	f9400be0 	ldr	x0, [sp, #16]
    3060:	8b010000 	add	x0, x0, x1
    3064:	b9400000 	ldr	w0, [x0]
    3068:	12030000 	and	w0, w0, #0x20000000
    306c:	7100001f 	cmp	w0, #0x0
    3070:	54000500 	b.eq	3110 <__utee_from_attr+0x12c>  // b.none
/home/avees/optee_os-nvidia/lib/libutee/tee_api_objects.c:22
    3074:	f94017e1 	ldr	x1, [sp, #40]
    3078:	aa0103e0 	mov	x0, x1
    307c:	d37ff800 	lsl	x0, x0, #1
    3080:	8b010000 	add	x0, x0, x1
    3084:	d37df000 	lsl	x0, x0, #3
    3088:	aa0003e1 	mov	x1, x0
    308c:	f9400be0 	ldr	x0, [sp, #16]
    3090:	8b010000 	add	x0, x0, x1
    3094:	b9400802 	ldr	w2, [x0, #8]
    3098:	f94017e1 	ldr	x1, [sp, #40]
    309c:	aa0103e0 	mov	x0, x1
    30a0:	d37ff800 	lsl	x0, x0, #1
    30a4:	8b010000 	add	x0, x0, x1
    30a8:	d37df000 	lsl	x0, x0, #3
    30ac:	aa0003e1 	mov	x1, x0
    30b0:	f9400fe0 	ldr	x0, [sp, #24]
    30b4:	8b010000 	add	x0, x0, x1
    30b8:	2a0203e1 	mov	w1, w2
    30bc:	f9000001 	str	x1, [x0]
/home/avees/optee_os-nvidia/lib/libutee/tee_api_objects.c:23
    30c0:	f94017e1 	ldr	x1, [sp, #40]
    30c4:	aa0103e0 	mov	x0, x1
    30c8:	d37ff800 	lsl	x0, x0, #1
    30cc:	8b010000 	add	x0, x0, x1
    30d0:	d37df000 	lsl	x0, x0, #3
    30d4:	aa0003e1 	mov	x1, x0
    30d8:	f9400be0 	ldr	x0, [sp, #16]
    30dc:	8b010000 	add	x0, x0, x1
    30e0:	b9400c02 	ldr	w2, [x0, #12]
    30e4:	f94017e1 	ldr	x1, [sp, #40]
    30e8:	aa0103e0 	mov	x0, x1
    30ec:	d37ff800 	lsl	x0, x0, #1
    30f0:	8b010000 	add	x0, x0, x1
    30f4:	d37df000 	lsl	x0, x0, #3
    30f8:	aa0003e1 	mov	x1, x0
    30fc:	f9400fe0 	ldr	x0, [sp, #24]
    3100:	8b010000 	add	x0, x0, x1
    3104:	2a0203e1 	mov	w1, w2
    3108:	f9000401 	str	x1, [x0, #8]
    310c:	14000027 	b	31a8 <__utee_from_attr+0x1c4>
/home/avees/optee_os-nvidia/lib/libutee/tee_api_objects.c:25
    3110:	f94017e1 	ldr	x1, [sp, #40]
    3114:	aa0103e0 	mov	x0, x1
    3118:	d37ff800 	lsl	x0, x0, #1
    311c:	8b010000 	add	x0, x0, x1
    3120:	d37df000 	lsl	x0, x0, #3
    3124:	aa0003e1 	mov	x1, x0
    3128:	f9400be0 	ldr	x0, [sp, #16]
    312c:	8b010000 	add	x0, x0, x1
    3130:	f9400402 	ldr	x2, [x0, #8]
    3134:	f94017e1 	ldr	x1, [sp, #40]
    3138:	aa0103e0 	mov	x0, x1
    313c:	d37ff800 	lsl	x0, x0, #1
    3140:	8b010000 	add	x0, x0, x1
    3144:	d37df000 	lsl	x0, x0, #3
    3148:	aa0003e1 	mov	x1, x0
    314c:	f9400fe0 	ldr	x0, [sp, #24]
    3150:	8b010000 	add	x0, x0, x1
    3154:	aa0203e1 	mov	x1, x2
    3158:	f9000001 	str	x1, [x0]
/home/avees/optee_os-nvidia/lib/libutee/tee_api_objects.c:26
    315c:	f94017e1 	ldr	x1, [sp, #40]
    3160:	aa0103e0 	mov	x0, x1
    3164:	d37ff800 	lsl	x0, x0, #1
    3168:	8b010000 	add	x0, x0, x1
    316c:	d37df000 	lsl	x0, x0, #3
    3170:	aa0003e1 	mov	x1, x0
    3174:	f9400be0 	ldr	x0, [sp, #16]
    3178:	8b010000 	add	x0, x0, x1
    317c:	b9401002 	ldr	w2, [x0, #16]
    3180:	f94017e1 	ldr	x1, [sp, #40]
    3184:	aa0103e0 	mov	x0, x1
    3188:	d37ff800 	lsl	x0, x0, #1
    318c:	8b010000 	add	x0, x0, x1
    3190:	d37df000 	lsl	x0, x0, #3
    3194:	aa0003e1 	mov	x1, x0
    3198:	f9400fe0 	ldr	x0, [sp, #24]
    319c:	8b010000 	add	x0, x0, x1
    31a0:	2a0203e1 	mov	w1, w2
    31a4:	f9000401 	str	x1, [x0, #8]
/home/avees/optee_os-nvidia/lib/libutee/tee_api_objects.c:19 (discriminator 2)
    31a8:	f94017e0 	ldr	x0, [sp, #40]
    31ac:	91000400 	add	x0, x0, #0x1
    31b0:	f90017e0 	str	x0, [sp, #40]
/home/avees/optee_os-nvidia/lib/libutee/tee_api_objects.c:19 (discriminator 1)
    31b4:	b9400fe0 	ldr	w0, [sp, #12]
    31b8:	f94017e1 	ldr	x1, [sp, #40]
    31bc:	eb00003f 	cmp	x1, x0
    31c0:	54fff1e3 	b.cc	2ffc <__utee_from_attr+0x18>  // b.lo, b.ul, b.last
/home/avees/optee_os-nvidia/lib/libutee/tee_api_objects.c:29
    31c4:	d503201f 	nop
    31c8:	d503201f 	nop
    31cc:	9100c3ff 	add	sp, sp, #0x30
    31d0:	d65f03c0 	ret

00000000000031d4 <TEE_GetObjectInfo>:
TEE_GetObjectInfo():
/home/avees/optee_os-nvidia/lib/libutee/tee_api_objects.c:39
    31d4:	a9bd7bfd 	stp	x29, x30, [sp, #-48]!
    31d8:	910003fd 	mov	x29, sp
    31dc:	f9000fe0 	str	x0, [sp, #24]
    31e0:	f9000be1 	str	x1, [sp, #16]
/home/avees/optee_os-nvidia/lib/libutee/tee_api_objects.c:42
    31e4:	f9400fe0 	ldr	x0, [sp, #24]
    31e8:	f9400be1 	ldr	x1, [sp, #16]
    31ec:	94001e36 	bl	aac4 <_utee_cryp_obj_get_info>
    31f0:	b9002fe0 	str	w0, [sp, #44]
/home/avees/optee_os-nvidia/lib/libutee/tee_api_objects.c:44
    31f4:	b9402fe0 	ldr	w0, [sp, #44]
    31f8:	7100001f 	cmp	w0, #0x0
    31fc:	54000060 	b.eq	3208 <TEE_GetObjectInfo+0x34>  // b.none
/home/avees/optee_os-nvidia/lib/libutee/tee_api_objects.c:45
    3200:	b9402fe0 	ldr	w0, [sp, #44]
    3204:	94001d44 	bl	a714 <TEE_Panic>
/home/avees/optee_os-nvidia/lib/libutee/tee_api_objects.c:47
    3208:	f9400be0 	ldr	x0, [sp, #16]
    320c:	b9400001 	ldr	w1, [x0]
    3210:	528017c0 	mov	w0, #0xbe                  	// #190
    3214:	72b40000 	movk	w0, #0xa000, lsl #16
    3218:	6b00003f 	cmp	w1, w0
    321c:	540001a1 	b.ne	3250 <TEE_GetObjectInfo+0x7c>  // b.any
/home/avees/optee_os-nvidia/lib/libutee/tee_api_objects.c:48
    3220:	f9400be0 	ldr	x0, [sp, #16]
    3224:	b900041f 	str	wzr, [x0, #4]
/home/avees/optee_os-nvidia/lib/libutee/tee_api_objects.c:49
    3228:	f9400be0 	ldr	x0, [sp, #16]
    322c:	b900081f 	str	wzr, [x0, #8]
/home/avees/optee_os-nvidia/lib/libutee/tee_api_objects.c:50
    3230:	f9400be0 	ldr	x0, [sp, #16]
    3234:	b9000c1f 	str	wzr, [x0, #12]
/home/avees/optee_os-nvidia/lib/libutee/tee_api_objects.c:51
    3238:	f9400be0 	ldr	x0, [sp, #16]
    323c:	b900101f 	str	wzr, [x0, #16]
/home/avees/optee_os-nvidia/lib/libutee/tee_api_objects.c:52
    3240:	f9400be0 	ldr	x0, [sp, #16]
    3244:	b900141f 	str	wzr, [x0, #20]
/home/avees/optee_os-nvidia/lib/libutee/tee_api_objects.c:53
    3248:	f9400be0 	ldr	x0, [sp, #16]
    324c:	b900181f 	str	wzr, [x0, #24]
/home/avees/optee_os-nvidia/lib/libutee/tee_api_objects.c:55
    3250:	d503201f 	nop
    3254:	a8c37bfd 	ldp	x29, x30, [sp], #48
    3258:	d65f03c0 	ret

000000000000325c <TEE_GetObjectInfo1>:
TEE_GetObjectInfo1():
/home/avees/optee_os-nvidia/lib/libutee/tee_api_objects.c:58
    325c:	a9bd7bfd 	stp	x29, x30, [sp, #-48]!
    3260:	910003fd 	mov	x29, sp
    3264:	f9000fe0 	str	x0, [sp, #24]
    3268:	f9000be1 	str	x1, [sp, #16]
/home/avees/optee_os-nvidia/lib/libutee/tee_api_objects.c:61
    326c:	f9400fe0 	ldr	x0, [sp, #24]
    3270:	f9400be1 	ldr	x1, [sp, #16]
    3274:	94001e14 	bl	aac4 <_utee_cryp_obj_get_info>
    3278:	b9002fe0 	str	w0, [sp, #44]
/home/avees/optee_os-nvidia/lib/libutee/tee_api_objects.c:63
    327c:	b9402fe0 	ldr	w0, [sp, #44]
    3280:	7100001f 	cmp	w0, #0x0
    3284:	540001a0 	b.eq	32b8 <TEE_GetObjectInfo1+0x5c>  // b.none
/home/avees/optee_os-nvidia/lib/libutee/tee_api_objects.c:63 (discriminator 1)
    3288:	b9402fe1 	ldr	w1, [sp, #44]
    328c:	52800020 	mov	w0, #0x1                   	// #1
    3290:	72be0200 	movk	w0, #0xf010, lsl #16
    3294:	6b00003f 	cmp	w1, w0
    3298:	54000100 	b.eq	32b8 <TEE_GetObjectInfo1+0x5c>  // b.none
/home/avees/optee_os-nvidia/lib/libutee/tee_api_objects.c:64
    329c:	b9402fe1 	ldr	w1, [sp, #44]
    32a0:	52800060 	mov	w0, #0x3                   	// #3
    32a4:	72be0200 	movk	w0, #0xf010, lsl #16
    32a8:	6b00003f 	cmp	w1, w0
    32ac:	54000060 	b.eq	32b8 <TEE_GetObjectInfo1+0x5c>  // b.none
/home/avees/optee_os-nvidia/lib/libutee/tee_api_objects.c:66
    32b0:	b9402fe0 	ldr	w0, [sp, #44]
    32b4:	94001d18 	bl	a714 <TEE_Panic>
/home/avees/optee_os-nvidia/lib/libutee/tee_api_objects.c:68
    32b8:	b9402fe0 	ldr	w0, [sp, #44]
/home/avees/optee_os-nvidia/lib/libutee/tee_api_objects.c:69
    32bc:	a8c37bfd 	ldp	x29, x30, [sp], #48
    32c0:	d65f03c0 	ret

00000000000032c4 <TEE_RestrictObjectUsage>:
TEE_RestrictObjectUsage():
/home/avees/optee_os-nvidia/lib/libutee/tee_api_objects.c:78
    32c4:	a9bb7bfd 	stp	x29, x30, [sp, #-80]!
    32c8:	910003fd 	mov	x29, sp
    32cc:	f9000fe0 	str	x0, [sp, #24]
    32d0:	b90017e1 	str	w1, [sp, #20]
    32d4:	f00000e0 	adrp	x0, 22000 <_DYNAMIC>
    32d8:	f9409800 	ldr	x0, [x0, #304]
    32dc:	f9400001 	ldr	x1, [x0]
    32e0:	f90027e1 	str	x1, [sp, #72]
    32e4:	d2800001 	mov	x1, #0x0                   	// #0
/home/avees/optee_os-nvidia/lib/libutee/tee_api_objects.c:82
    32e8:	f9400fe0 	ldr	x0, [sp, #24]
    32ec:	9100a3e1 	add	x1, sp, #0x28
    32f0:	94001df5 	bl	aac4 <_utee_cryp_obj_get_info>
    32f4:	b90027e0 	str	w0, [sp, #36]
/home/avees/optee_os-nvidia/lib/libutee/tee_api_objects.c:83
    32f8:	b9402be1 	ldr	w1, [sp, #40]
    32fc:	528017c0 	mov	w0, #0xbe                  	// #190
    3300:	72b40000 	movk	w0, #0xa000, lsl #16
    3304:	6b00003f 	cmp	w1, w0
    3308:	54000160 	b.eq	3334 <TEE_RestrictObjectUsage+0x70>  // b.none
/home/avees/optee_os-nvidia/lib/libutee/tee_api_objects.c:86
    330c:	b94017e1 	ldr	w1, [sp, #20]
    3310:	f9400fe0 	ldr	x0, [sp, #24]
    3314:	94000013 	bl	3360 <TEE_RestrictObjectUsage1>
    3318:	b90027e0 	str	w0, [sp, #36]
/home/avees/optee_os-nvidia/lib/libutee/tee_api_objects.c:88
    331c:	b94027e0 	ldr	w0, [sp, #36]
    3320:	7100001f 	cmp	w0, #0x0
    3324:	540000a0 	b.eq	3338 <TEE_RestrictObjectUsage+0x74>  // b.none
/home/avees/optee_os-nvidia/lib/libutee/tee_api_objects.c:89
    3328:	b94027e0 	ldr	w0, [sp, #36]
    332c:	94001cfa 	bl	a714 <TEE_Panic>
    3330:	14000002 	b	3338 <TEE_RestrictObjectUsage+0x74>
/home/avees/optee_os-nvidia/lib/libutee/tee_api_objects.c:84
    3334:	d503201f 	nop
/home/avees/optee_os-nvidia/lib/libutee/tee_api_objects.c:90
    3338:	f00000e0 	adrp	x0, 22000 <_DYNAMIC>
    333c:	f9409800 	ldr	x0, [x0, #304]
    3340:	f94027e1 	ldr	x1, [sp, #72]
    3344:	f9400002 	ldr	x2, [x0]
    3348:	eb020021 	subs	x1, x1, x2
    334c:	d2800002 	mov	x2, #0x0                   	// #0
    3350:	54000040 	b.eq	3358 <TEE_RestrictObjectUsage+0x94>  // b.none
    3354:	97fff47b 	bl	540 <__stack_chk_fail>
    3358:	a8c57bfd 	ldp	x29, x30, [sp], #80
    335c:	d65f03c0 	ret

0000000000003360 <TEE_RestrictObjectUsage1>:
TEE_RestrictObjectUsage1():
/home/avees/optee_os-nvidia/lib/libutee/tee_api_objects.c:93
    3360:	a9bd7bfd 	stp	x29, x30, [sp, #-48]!
    3364:	910003fd 	mov	x29, sp
    3368:	f9000fe0 	str	x0, [sp, #24]
    336c:	b90017e1 	str	w1, [sp, #20]
/home/avees/optee_os-nvidia/lib/libutee/tee_api_objects.c:96
    3370:	f9400fe0 	ldr	x0, [sp, #24]
    3374:	b94017e1 	ldr	w1, [sp, #20]
    3378:	94001dd6 	bl	aad0 <_utee_cryp_obj_restrict_usage>
    337c:	b9002fe0 	str	w0, [sp, #44]
/home/avees/optee_os-nvidia/lib/libutee/tee_api_objects.c:99
    3380:	b9402fe0 	ldr	w0, [sp, #44]
    3384:	7100001f 	cmp	w0, #0x0
    3388:	540001a0 	b.eq	33bc <TEE_RestrictObjectUsage1+0x5c>  // b.none
/home/avees/optee_os-nvidia/lib/libutee/tee_api_objects.c:99 (discriminator 1)
    338c:	b9402fe1 	ldr	w1, [sp, #44]
    3390:	52800020 	mov	w0, #0x1                   	// #1
    3394:	72be0200 	movk	w0, #0xf010, lsl #16
    3398:	6b00003f 	cmp	w1, w0
    339c:	54000100 	b.eq	33bc <TEE_RestrictObjectUsage1+0x5c>  // b.none
/home/avees/optee_os-nvidia/lib/libutee/tee_api_objects.c:100
    33a0:	b9402fe1 	ldr	w1, [sp, #44]
    33a4:	52800060 	mov	w0, #0x3                   	// #3
    33a8:	72be0200 	movk	w0, #0xf010, lsl #16
    33ac:	6b00003f 	cmp	w1, w0
    33b0:	54000060 	b.eq	33bc <TEE_RestrictObjectUsage1+0x5c>  // b.none
/home/avees/optee_os-nvidia/lib/libutee/tee_api_objects.c:102
    33b4:	b9402fe0 	ldr	w0, [sp, #44]
    33b8:	94001cd7 	bl	a714 <TEE_Panic>
/home/avees/optee_os-nvidia/lib/libutee/tee_api_objects.c:104
    33bc:	b9402fe0 	ldr	w0, [sp, #44]
/home/avees/optee_os-nvidia/lib/libutee/tee_api_objects.c:105
    33c0:	a8c37bfd 	ldp	x29, x30, [sp], #48
    33c4:	d65f03c0 	ret

00000000000033c8 <TEE_GetObjectBufferAttribute>:
TEE_GetObjectBufferAttribute():
/home/avees/optee_os-nvidia/lib/libutee/tee_api_objects.c:110
    33c8:	a9b97bfd 	stp	x29, x30, [sp, #-112]!
    33cc:	910003fd 	mov	x29, sp
    33d0:	f90017e0 	str	x0, [sp, #40]
    33d4:	b90027e1 	str	w1, [sp, #36]
    33d8:	f9000fe2 	str	x2, [sp, #24]
    33dc:	f9000be3 	str	x3, [sp, #16]
    33e0:	f00000e0 	adrp	x0, 22000 <_DYNAMIC>
    33e4:	f9409800 	ldr	x0, [x0, #304]
    33e8:	f9400001 	ldr	x1, [x0]
    33ec:	f90037e1 	str	x1, [sp, #104]
    33f0:	d2800001 	mov	x1, #0x0                   	// #0
/home/avees/optee_os-nvidia/lib/libutee/tee_api_objects.c:115
    33f4:	d2800081 	mov	x1, #0x4                   	// #4
    33f8:	f9400be0 	ldr	x0, [sp, #16]
    33fc:	94001d58 	bl	a95c <__utee_check_inout_annotation>
/home/avees/optee_os-nvidia/lib/libutee/tee_api_objects.c:117
    3400:	f94017e0 	ldr	x0, [sp, #40]
    3404:	910123e1 	add	x1, sp, #0x48
    3408:	94001daf 	bl	aac4 <_utee_cryp_obj_get_info>
    340c:	b9003fe0 	str	w0, [sp, #60]
/home/avees/optee_os-nvidia/lib/libutee/tee_api_objects.c:118
    3410:	b9403fe0 	ldr	w0, [sp, #60]
    3414:	7100001f 	cmp	w0, #0x0
    3418:	54000301 	b.ne	3478 <TEE_GetObjectBufferAttribute+0xb0>  // b.any
/home/avees/optee_os-nvidia/lib/libutee/tee_api_objects.c:122
    341c:	b94027e0 	ldr	w0, [sp, #36]
    3420:	12030000 	and	w0, w0, #0x20000000
    3424:	7100001f 	cmp	w0, #0x0
    3428:	54000080 	b.eq	3438 <TEE_GetObjectBufferAttribute+0x70>  // b.none
/home/avees/optee_os-nvidia/lib/libutee/tee_api_objects.c:123
    342c:	129fff20 	mov	w0, #0xffff0006            	// #-65530
    3430:	b9003fe0 	str	w0, [sp, #60]
/home/avees/optee_os-nvidia/lib/libutee/tee_api_objects.c:124
    3434:	14000012 	b	347c <TEE_GetObjectBufferAttribute+0xb4>
/home/avees/optee_os-nvidia/lib/libutee/tee_api_objects.c:127
    3438:	f9400be0 	ldr	x0, [sp, #16]
    343c:	b9400000 	ldr	w0, [x0]
    3440:	2a0003e0 	mov	w0, w0
    3444:	f90023e0 	str	x0, [sp, #64]
/home/avees/optee_os-nvidia/lib/libutee/tee_api_objects.c:128
    3448:	f94017e0 	ldr	x0, [sp, #40]
    344c:	b94027e1 	ldr	w1, [sp, #36]
    3450:	910103e2 	add	x2, sp, #0x40
    3454:	aa0203e3 	mov	x3, x2
    3458:	f9400fe2 	ldr	x2, [sp, #24]
    345c:	94001da0 	bl	aadc <_utee_cryp_obj_get_attr>
    3460:	b9003fe0 	str	w0, [sp, #60]
/home/avees/optee_os-nvidia/lib/libutee/tee_api_objects.c:130
    3464:	f94023e0 	ldr	x0, [sp, #64]
    3468:	2a0003e1 	mov	w1, w0
    346c:	f9400be0 	ldr	x0, [sp, #16]
    3470:	b9000001 	str	w1, [x0]
    3474:	14000002 	b	347c <TEE_GetObjectBufferAttribute+0xb4>
/home/avees/optee_os-nvidia/lib/libutee/tee_api_objects.c:119
    3478:	d503201f 	nop
/home/avees/optee_os-nvidia/lib/libutee/tee_api_objects.c:133
    347c:	b9403fe0 	ldr	w0, [sp, #60]
    3480:	7100001f 	cmp	w0, #0x0
    3484:	540002a0 	b.eq	34d8 <TEE_GetObjectBufferAttribute+0x110>  // b.none
/home/avees/optee_os-nvidia/lib/libutee/tee_api_objects.c:133 (discriminator 1)
    3488:	b9403fe1 	ldr	w1, [sp, #60]
    348c:	129ffee0 	mov	w0, #0xffff0008            	// #-65528
    3490:	6b00003f 	cmp	w1, w0
    3494:	54000220 	b.eq	34d8 <TEE_GetObjectBufferAttribute+0x110>  // b.none
/home/avees/optee_os-nvidia/lib/libutee/tee_api_objects.c:134
    3498:	b9403fe1 	ldr	w1, [sp, #60]
    349c:	129ffde0 	mov	w0, #0xffff0010            	// #-65520
    34a0:	6b00003f 	cmp	w1, w0
    34a4:	540001a0 	b.eq	34d8 <TEE_GetObjectBufferAttribute+0x110>  // b.none
/home/avees/optee_os-nvidia/lib/libutee/tee_api_objects.c:135
    34a8:	b9403fe1 	ldr	w1, [sp, #60]
    34ac:	52800020 	mov	w0, #0x1                   	// #1
    34b0:	72be0200 	movk	w0, #0xf010, lsl #16
    34b4:	6b00003f 	cmp	w1, w0
    34b8:	54000100 	b.eq	34d8 <TEE_GetObjectBufferAttribute+0x110>  // b.none
/home/avees/optee_os-nvidia/lib/libutee/tee_api_objects.c:136
    34bc:	b9403fe1 	ldr	w1, [sp, #60]
    34c0:	52800060 	mov	w0, #0x3                   	// #3
    34c4:	72be0200 	movk	w0, #0xf010, lsl #16
    34c8:	6b00003f 	cmp	w1, w0
    34cc:	54000060 	b.eq	34d8 <TEE_GetObjectBufferAttribute+0x110>  // b.none
/home/avees/optee_os-nvidia/lib/libutee/tee_api_objects.c:138
    34d0:	b9403fe0 	ldr	w0, [sp, #60]
    34d4:	94001c90 	bl	a714 <TEE_Panic>
/home/avees/optee_os-nvidia/lib/libutee/tee_api_objects.c:140
    34d8:	b9403fe0 	ldr	w0, [sp, #60]
    34dc:	2a0003e1 	mov	w1, w0
/home/avees/optee_os-nvidia/lib/libutee/tee_api_objects.c:141
    34e0:	f00000e0 	adrp	x0, 22000 <_DYNAMIC>
    34e4:	f9409800 	ldr	x0, [x0, #304]
    34e8:	f94037e2 	ldr	x2, [sp, #104]
    34ec:	f9400003 	ldr	x3, [x0]
    34f0:	eb030042 	subs	x2, x2, x3
    34f4:	d2800003 	mov	x3, #0x0                   	// #0
    34f8:	54000040 	b.eq	3500 <TEE_GetObjectBufferAttribute+0x138>  // b.none
    34fc:	97fff411 	bl	540 <__stack_chk_fail>
    3500:	2a0103e0 	mov	w0, w1
    3504:	a8c77bfd 	ldp	x29, x30, [sp], #112
    3508:	d65f03c0 	ret

000000000000350c <TEE_GetObjectValueAttribute>:
TEE_GetObjectValueAttribute():
/home/avees/optee_os-nvidia/lib/libutee/tee_api_objects.c:146
    350c:	a9b97bfd 	stp	x29, x30, [sp, #-112]!
    3510:	910003fd 	mov	x29, sp
    3514:	f90017e0 	str	x0, [sp, #40]
    3518:	b90027e1 	str	w1, [sp, #36]
    351c:	f9000fe2 	str	x2, [sp, #24]
    3520:	f9000be3 	str	x3, [sp, #16]
    3524:	f00000e0 	adrp	x0, 22000 <_DYNAMIC>
    3528:	f9409800 	ldr	x0, [x0, #304]
    352c:	f9400001 	ldr	x1, [x0]
    3530:	f90037e1 	str	x1, [sp, #104]
    3534:	d2800001 	mov	x1, #0x0                   	// #0
/home/avees/optee_os-nvidia/lib/libutee/tee_api_objects.c:150
    3538:	d2800100 	mov	x0, #0x8                   	// #8
    353c:	f9001fe0 	str	x0, [sp, #56]
/home/avees/optee_os-nvidia/lib/libutee/tee_api_objects.c:152
    3540:	f9400fe0 	ldr	x0, [sp, #24]
    3544:	f100001f 	cmp	x0, #0x0
    3548:	54000080 	b.eq	3558 <TEE_GetObjectValueAttribute+0x4c>  // b.none
/home/avees/optee_os-nvidia/lib/libutee/tee_api_objects.c:153
    354c:	d2800081 	mov	x1, #0x4                   	// #4
    3550:	f9400fe0 	ldr	x0, [sp, #24]
    3554:	94001cdf 	bl	a8d0 <__utee_check_out_annotation>
/home/avees/optee_os-nvidia/lib/libutee/tee_api_objects.c:154
    3558:	f9400be0 	ldr	x0, [sp, #16]
    355c:	f100001f 	cmp	x0, #0x0
    3560:	54000080 	b.eq	3570 <TEE_GetObjectValueAttribute+0x64>  // b.none
/home/avees/optee_os-nvidia/lib/libutee/tee_api_objects.c:155
    3564:	d2800081 	mov	x1, #0x4                   	// #4
    3568:	f9400be0 	ldr	x0, [sp, #16]
    356c:	94001cd9 	bl	a8d0 <__utee_check_out_annotation>
/home/avees/optee_os-nvidia/lib/libutee/tee_api_objects.c:157
    3570:	f94017e0 	ldr	x0, [sp, #40]
    3574:	910103e1 	add	x1, sp, #0x40
    3578:	94001d53 	bl	aac4 <_utee_cryp_obj_get_info>
    357c:	b90037e0 	str	w0, [sp, #52]
/home/avees/optee_os-nvidia/lib/libutee/tee_api_objects.c:158
    3580:	b94037e0 	ldr	w0, [sp, #52]
    3584:	7100001f 	cmp	w0, #0x0
    3588:	540001e1 	b.ne	35c4 <TEE_GetObjectValueAttribute+0xb8>  // b.any
/home/avees/optee_os-nvidia/lib/libutee/tee_api_objects.c:162
    358c:	b94027e0 	ldr	w0, [sp, #36]
    3590:	12030000 	and	w0, w0, #0x20000000
    3594:	7100001f 	cmp	w0, #0x0
    3598:	54000081 	b.ne	35a8 <TEE_GetObjectValueAttribute+0x9c>  // b.any
/home/avees/optee_os-nvidia/lib/libutee/tee_api_objects.c:163
    359c:	129fff20 	mov	w0, #0xffff0006            	// #-65530
    35a0:	b90037e0 	str	w0, [sp, #52]
/home/avees/optee_os-nvidia/lib/libutee/tee_api_objects.c:164
    35a4:	14000009 	b	35c8 <TEE_GetObjectValueAttribute+0xbc>
/home/avees/optee_os-nvidia/lib/libutee/tee_api_objects.c:167
    35a8:	f94017e0 	ldr	x0, [sp, #40]
    35ac:	b94027e1 	ldr	w1, [sp, #36]
    35b0:	9100e3e3 	add	x3, sp, #0x38
    35b4:	910183e2 	add	x2, sp, #0x60
    35b8:	94001d49 	bl	aadc <_utee_cryp_obj_get_attr>
    35bc:	b90037e0 	str	w0, [sp, #52]
    35c0:	14000002 	b	35c8 <TEE_GetObjectValueAttribute+0xbc>
/home/avees/optee_os-nvidia/lib/libutee/tee_api_objects.c:159
    35c4:	d503201f 	nop
/home/avees/optee_os-nvidia/lib/libutee/tee_api_objects.c:171
    35c8:	b94037e0 	ldr	w0, [sp, #52]
    35cc:	7100001f 	cmp	w0, #0x0
    35d0:	54000220 	b.eq	3614 <TEE_GetObjectValueAttribute+0x108>  // b.none
/home/avees/optee_os-nvidia/lib/libutee/tee_api_objects.c:171 (discriminator 1)
    35d4:	b94037e1 	ldr	w1, [sp, #52]
    35d8:	129ffee0 	mov	w0, #0xffff0008            	// #-65528
    35dc:	6b00003f 	cmp	w1, w0
    35e0:	540001a0 	b.eq	3614 <TEE_GetObjectValueAttribute+0x108>  // b.none
/home/avees/optee_os-nvidia/lib/libutee/tee_api_objects.c:172
    35e4:	b94037e1 	ldr	w1, [sp, #52]
    35e8:	52800020 	mov	w0, #0x1                   	// #1
    35ec:	72be0200 	movk	w0, #0xf010, lsl #16
    35f0:	6b00003f 	cmp	w1, w0
    35f4:	54000100 	b.eq	3614 <TEE_GetObjectValueAttribute+0x108>  // b.none
/home/avees/optee_os-nvidia/lib/libutee/tee_api_objects.c:173
    35f8:	b94037e1 	ldr	w1, [sp, #52]
    35fc:	52800060 	mov	w0, #0x3                   	// #3
    3600:	72be0200 	movk	w0, #0xf010, lsl #16
    3604:	6b00003f 	cmp	w1, w0
    3608:	54000060 	b.eq	3614 <TEE_GetObjectValueAttribute+0x108>  // b.none
/home/avees/optee_os-nvidia/lib/libutee/tee_api_objects.c:175
    360c:	b94037e0 	ldr	w0, [sp, #52]
    3610:	94001c41 	bl	a714 <TEE_Panic>
/home/avees/optee_os-nvidia/lib/libutee/tee_api_objects.c:177
    3614:	f9401fe0 	ldr	x0, [sp, #56]
    3618:	f100201f 	cmp	x0, #0x8
    361c:	54000060 	b.eq	3628 <TEE_GetObjectValueAttribute+0x11c>  // b.none
/home/avees/optee_os-nvidia/lib/libutee/tee_api_objects.c:178
    3620:	52800000 	mov	w0, #0x0                   	// #0
    3624:	94001c3c 	bl	a714 <TEE_Panic>
/home/avees/optee_os-nvidia/lib/libutee/tee_api_objects.c:180
    3628:	b94037e0 	ldr	w0, [sp, #52]
    362c:	7100001f 	cmp	w0, #0x0
    3630:	540001a1 	b.ne	3664 <TEE_GetObjectValueAttribute+0x158>  // b.any
/home/avees/optee_os-nvidia/lib/libutee/tee_api_objects.c:181
    3634:	f9400fe0 	ldr	x0, [sp, #24]
    3638:	f100001f 	cmp	x0, #0x0
    363c:	54000080 	b.eq	364c <TEE_GetObjectValueAttribute+0x140>  // b.none
/home/avees/optee_os-nvidia/lib/libutee/tee_api_objects.c:182
    3640:	b94063e1 	ldr	w1, [sp, #96]
    3644:	f9400fe0 	ldr	x0, [sp, #24]
    3648:	b9000001 	str	w1, [x0]
/home/avees/optee_os-nvidia/lib/libutee/tee_api_objects.c:183
    364c:	f9400be0 	ldr	x0, [sp, #16]
    3650:	f100001f 	cmp	x0, #0x0
    3654:	54000080 	b.eq	3664 <TEE_GetObjectValueAttribute+0x158>  // b.none
/home/avees/optee_os-nvidia/lib/libutee/tee_api_objects.c:184
    3658:	b94067e1 	ldr	w1, [sp, #100]
    365c:	f9400be0 	ldr	x0, [sp, #16]
    3660:	b9000001 	str	w1, [x0]
/home/avees/optee_os-nvidia/lib/libutee/tee_api_objects.c:187
    3664:	b94037e0 	ldr	w0, [sp, #52]
    3668:	2a0003e1 	mov	w1, w0
/home/avees/optee_os-nvidia/lib/libutee/tee_api_objects.c:188
    366c:	f00000e0 	adrp	x0, 22000 <_DYNAMIC>
    3670:	f9409800 	ldr	x0, [x0, #304]
    3674:	f94037e2 	ldr	x2, [sp, #104]
    3678:	f9400003 	ldr	x3, [x0]
    367c:	eb030042 	subs	x2, x2, x3
    3680:	d2800003 	mov	x3, #0x0                   	// #0
    3684:	54000040 	b.eq	368c <TEE_GetObjectValueAttribute+0x180>  // b.none
    3688:	97fff3ae 	bl	540 <__stack_chk_fail>
    368c:	2a0103e0 	mov	w0, w1
    3690:	a8c77bfd 	ldp	x29, x30, [sp], #112
    3694:	d65f03c0 	ret

0000000000003698 <TEE_CloseObject>:
TEE_CloseObject():
/home/avees/optee_os-nvidia/lib/libutee/tee_api_objects.c:191
    3698:	a9bd7bfd 	stp	x29, x30, [sp, #-48]!
    369c:	910003fd 	mov	x29, sp
    36a0:	f9000fe0 	str	x0, [sp, #24]
/home/avees/optee_os-nvidia/lib/libutee/tee_api_objects.c:194
    36a4:	f9400fe0 	ldr	x0, [sp, #24]
    36a8:	f100001f 	cmp	x0, #0x0
    36ac:	54000140 	b.eq	36d4 <TEE_CloseObject+0x3c>  // b.none
/home/avees/optee_os-nvidia/lib/libutee/tee_api_objects.c:197
    36b0:	f9400fe0 	ldr	x0, [sp, #24]
    36b4:	94001d10 	bl	aaf4 <_utee_cryp_obj_close>
    36b8:	b9002fe0 	str	w0, [sp, #44]
/home/avees/optee_os-nvidia/lib/libutee/tee_api_objects.c:198
    36bc:	b9402fe0 	ldr	w0, [sp, #44]
    36c0:	7100001f 	cmp	w0, #0x0
    36c4:	540000a0 	b.eq	36d8 <TEE_CloseObject+0x40>  // b.none
/home/avees/optee_os-nvidia/lib/libutee/tee_api_objects.c:199
    36c8:	b9402fe0 	ldr	w0, [sp, #44]
    36cc:	94001c12 	bl	a714 <TEE_Panic>
    36d0:	14000002 	b	36d8 <TEE_CloseObject+0x40>
/home/avees/optee_os-nvidia/lib/libutee/tee_api_objects.c:195
    36d4:	d503201f 	nop
/home/avees/optee_os-nvidia/lib/libutee/tee_api_objects.c:200
    36d8:	a8c37bfd 	ldp	x29, x30, [sp], #48
    36dc:	d65f03c0 	ret

00000000000036e0 <TEE_AllocateTransientObject>:
TEE_AllocateTransientObject():
/home/avees/optee_os-nvidia/lib/libutee/tee_api_objects.c:207
    36e0:	a9bd7bfd 	stp	x29, x30, [sp, #-48]!
    36e4:	910003fd 	mov	x29, sp
    36e8:	b9001fe0 	str	w0, [sp, #28]
    36ec:	b9001be1 	str	w1, [sp, #24]
    36f0:	f9000be2 	str	x2, [sp, #16]
    36f4:	f00000e0 	adrp	x0, 22000 <_DYNAMIC>
    36f8:	f9409800 	ldr	x0, [x0, #304]
    36fc:	f9400001 	ldr	x1, [x0]
    3700:	f90017e1 	str	x1, [sp, #40]
    3704:	d2800001 	mov	x1, #0x0                   	// #0
/home/avees/optee_os-nvidia/lib/libutee/tee_api_objects.c:211
    3708:	d2800101 	mov	x1, #0x8                   	// #8
    370c:	f9400be0 	ldr	x0, [sp, #16]
    3710:	94001c70 	bl	a8d0 <__utee_check_out_annotation>
/home/avees/optee_os-nvidia/lib/libutee/tee_api_objects.c:213
    3714:	b9401fe0 	ldr	w0, [sp, #28]
    3718:	b9401be1 	ldr	w1, [sp, #24]
    371c:	910083e2 	add	x2, sp, #0x20
    3720:	94001cf2 	bl	aae8 <_utee_cryp_obj_alloc>
    3724:	b90027e0 	str	w0, [sp, #36]
/home/avees/optee_os-nvidia/lib/libutee/tee_api_objects.c:215
    3728:	b94027e0 	ldr	w0, [sp, #36]
    372c:	7100001f 	cmp	w0, #0x0
    3730:	54000160 	b.eq	375c <TEE_AllocateTransientObject+0x7c>  // b.none
/home/avees/optee_os-nvidia/lib/libutee/tee_api_objects.c:215 (discriminator 1)
    3734:	b94027e1 	ldr	w1, [sp, #36]
    3738:	129ffe60 	mov	w0, #0xffff000c            	// #-65524
    373c:	6b00003f 	cmp	w1, w0
    3740:	540000e0 	b.eq	375c <TEE_AllocateTransientObject+0x7c>  // b.none
/home/avees/optee_os-nvidia/lib/libutee/tee_api_objects.c:216
    3744:	b94027e1 	ldr	w1, [sp, #36]
    3748:	129ffea0 	mov	w0, #0xffff000a            	// #-65526
    374c:	6b00003f 	cmp	w1, w0
    3750:	54000060 	b.eq	375c <TEE_AllocateTransientObject+0x7c>  // b.none
/home/avees/optee_os-nvidia/lib/libutee/tee_api_objects.c:218
    3754:	b94027e0 	ldr	w0, [sp, #36]
    3758:	94001bef 	bl	a714 <TEE_Panic>
/home/avees/optee_os-nvidia/lib/libutee/tee_api_objects.c:220
    375c:	b94027e0 	ldr	w0, [sp, #36]
    3760:	7100001f 	cmp	w0, #0x0
    3764:	540000c1 	b.ne	377c <TEE_AllocateTransientObject+0x9c>  // b.any
/home/avees/optee_os-nvidia/lib/libutee/tee_api_objects.c:221
    3768:	b94023e0 	ldr	w0, [sp, #32]
    376c:	2a0003e0 	mov	w0, w0
    3770:	aa0003e1 	mov	x1, x0
    3774:	f9400be0 	ldr	x0, [sp, #16]
    3778:	f9000001 	str	x1, [x0]
/home/avees/optee_os-nvidia/lib/libutee/tee_api_objects.c:223
    377c:	b94027e0 	ldr	w0, [sp, #36]
    3780:	2a0003e1 	mov	w1, w0
/home/avees/optee_os-nvidia/lib/libutee/tee_api_objects.c:224
    3784:	f00000e0 	adrp	x0, 22000 <_DYNAMIC>
    3788:	f9409800 	ldr	x0, [x0, #304]
    378c:	f94017e2 	ldr	x2, [sp, #40]
    3790:	f9400003 	ldr	x3, [x0]
    3794:	eb030042 	subs	x2, x2, x3
    3798:	d2800003 	mov	x3, #0x0                   	// #0
    379c:	54000040 	b.eq	37a4 <TEE_AllocateTransientObject+0xc4>  // b.none
    37a0:	97fff368 	bl	540 <__stack_chk_fail>
    37a4:	2a0103e0 	mov	w0, w1
    37a8:	a8c37bfd 	ldp	x29, x30, [sp], #48
    37ac:	d65f03c0 	ret

00000000000037b0 <TEE_FreeTransientObject>:
TEE_FreeTransientObject():
/home/avees/optee_os-nvidia/lib/libutee/tee_api_objects.c:227
    37b0:	a9bb7bfd 	stp	x29, x30, [sp, #-80]!
    37b4:	910003fd 	mov	x29, sp
    37b8:	f9000fe0 	str	x0, [sp, #24]
    37bc:	f00000e0 	adrp	x0, 22000 <_DYNAMIC>
    37c0:	f9409800 	ldr	x0, [x0, #304]
    37c4:	f9400001 	ldr	x1, [x0]
    37c8:	f90027e1 	str	x1, [sp, #72]
    37cc:	d2800001 	mov	x1, #0x0                   	// #0
/home/avees/optee_os-nvidia/lib/libutee/tee_api_objects.c:231
    37d0:	f9400fe0 	ldr	x0, [sp, #24]
    37d4:	f100001f 	cmp	x0, #0x0
    37d8:	54000320 	b.eq	383c <TEE_FreeTransientObject+0x8c>  // b.none
/home/avees/optee_os-nvidia/lib/libutee/tee_api_objects.c:234
    37dc:	f9400fe0 	ldr	x0, [sp, #24]
    37e0:	9100a3e1 	add	x1, sp, #0x28
    37e4:	94001cb8 	bl	aac4 <_utee_cryp_obj_get_info>
    37e8:	b90027e0 	str	w0, [sp, #36]
/home/avees/optee_os-nvidia/lib/libutee/tee_api_objects.c:235
    37ec:	b94027e0 	ldr	w0, [sp, #36]
    37f0:	7100001f 	cmp	w0, #0x0
    37f4:	54000060 	b.eq	3800 <TEE_FreeTransientObject+0x50>  // b.none
/home/avees/optee_os-nvidia/lib/libutee/tee_api_objects.c:236
    37f8:	b94027e0 	ldr	w0, [sp, #36]
    37fc:	94001bc6 	bl	a714 <TEE_Panic>
/home/avees/optee_os-nvidia/lib/libutee/tee_api_objects.c:238
    3800:	b94043e0 	ldr	w0, [sp, #64]
    3804:	12100000 	and	w0, w0, #0x10000
    3808:	7100001f 	cmp	w0, #0x0
    380c:	54000060 	b.eq	3818 <TEE_FreeTransientObject+0x68>  // b.none
/home/avees/optee_os-nvidia/lib/libutee/tee_api_objects.c:239
    3810:	52800000 	mov	w0, #0x0                   	// #0
    3814:	94001bc0 	bl	a714 <TEE_Panic>
/home/avees/optee_os-nvidia/lib/libutee/tee_api_objects.c:241
    3818:	f9400fe0 	ldr	x0, [sp, #24]
    381c:	94001cb6 	bl	aaf4 <_utee_cryp_obj_close>
    3820:	b90027e0 	str	w0, [sp, #36]
/home/avees/optee_os-nvidia/lib/libutee/tee_api_objects.c:242
    3824:	b94027e0 	ldr	w0, [sp, #36]
    3828:	7100001f 	cmp	w0, #0x0
    382c:	540000a0 	b.eq	3840 <TEE_FreeTransientObject+0x90>  // b.none
/home/avees/optee_os-nvidia/lib/libutee/tee_api_objects.c:243
    3830:	b94027e0 	ldr	w0, [sp, #36]
    3834:	94001bb8 	bl	a714 <TEE_Panic>
    3838:	14000002 	b	3840 <TEE_FreeTransientObject+0x90>
/home/avees/optee_os-nvidia/lib/libutee/tee_api_objects.c:232
    383c:	d503201f 	nop
/home/avees/optee_os-nvidia/lib/libutee/tee_api_objects.c:244
    3840:	f00000e0 	adrp	x0, 22000 <_DYNAMIC>
    3844:	f9409800 	ldr	x0, [x0, #304]
    3848:	f94027e1 	ldr	x1, [sp, #72]
    384c:	f9400002 	ldr	x2, [x0]
    3850:	eb020021 	subs	x1, x1, x2
    3854:	d2800002 	mov	x2, #0x0                   	// #0
    3858:	54000040 	b.eq	3860 <TEE_FreeTransientObject+0xb0>  // b.none
    385c:	97fff339 	bl	540 <__stack_chk_fail>
    3860:	a8c57bfd 	ldp	x29, x30, [sp], #80
    3864:	d65f03c0 	ret

0000000000003868 <TEE_ResetTransientObject>:
TEE_ResetTransientObject():
/home/avees/optee_os-nvidia/lib/libutee/tee_api_objects.c:247
    3868:	a9bb7bfd 	stp	x29, x30, [sp, #-80]!
    386c:	910003fd 	mov	x29, sp
    3870:	f9000fe0 	str	x0, [sp, #24]
    3874:	f00000e0 	adrp	x0, 22000 <_DYNAMIC>
    3878:	f9409800 	ldr	x0, [x0, #304]
    387c:	f9400001 	ldr	x1, [x0]
    3880:	f90027e1 	str	x1, [sp, #72]
    3884:	d2800001 	mov	x1, #0x0                   	// #0
/home/avees/optee_os-nvidia/lib/libutee/tee_api_objects.c:251
    3888:	f9400fe0 	ldr	x0, [sp, #24]
    388c:	f100001f 	cmp	x0, #0x0
    3890:	54000320 	b.eq	38f4 <TEE_ResetTransientObject+0x8c>  // b.none
/home/avees/optee_os-nvidia/lib/libutee/tee_api_objects.c:254
    3894:	f9400fe0 	ldr	x0, [sp, #24]
    3898:	9100a3e1 	add	x1, sp, #0x28
    389c:	94001c8a 	bl	aac4 <_utee_cryp_obj_get_info>
    38a0:	b90027e0 	str	w0, [sp, #36]
/home/avees/optee_os-nvidia/lib/libutee/tee_api_objects.c:255
    38a4:	b94027e0 	ldr	w0, [sp, #36]
    38a8:	7100001f 	cmp	w0, #0x0
    38ac:	54000060 	b.eq	38b8 <TEE_ResetTransientObject+0x50>  // b.none
/home/avees/optee_os-nvidia/lib/libutee/tee_api_objects.c:256
    38b0:	b94027e0 	ldr	w0, [sp, #36]
    38b4:	94001b98 	bl	a714 <TEE_Panic>
/home/avees/optee_os-nvidia/lib/libutee/tee_api_objects.c:258
    38b8:	b94043e0 	ldr	w0, [sp, #64]
    38bc:	12100000 	and	w0, w0, #0x10000
    38c0:	7100001f 	cmp	w0, #0x0
    38c4:	54000060 	b.eq	38d0 <TEE_ResetTransientObject+0x68>  // b.none
/home/avees/optee_os-nvidia/lib/libutee/tee_api_objects.c:259
    38c8:	52800000 	mov	w0, #0x0                   	// #0
    38cc:	94001b92 	bl	a714 <TEE_Panic>
/home/avees/optee_os-nvidia/lib/libutee/tee_api_objects.c:261
    38d0:	f9400fe0 	ldr	x0, [sp, #24]
    38d4:	94001c8b 	bl	ab00 <_utee_cryp_obj_reset>
    38d8:	b90027e0 	str	w0, [sp, #36]
/home/avees/optee_os-nvidia/lib/libutee/tee_api_objects.c:262
    38dc:	b94027e0 	ldr	w0, [sp, #36]
    38e0:	7100001f 	cmp	w0, #0x0
    38e4:	540000a0 	b.eq	38f8 <TEE_ResetTransientObject+0x90>  // b.none
/home/avees/optee_os-nvidia/lib/libutee/tee_api_objects.c:263
    38e8:	b94027e0 	ldr	w0, [sp, #36]
    38ec:	94001b8a 	bl	a714 <TEE_Panic>
    38f0:	14000002 	b	38f8 <TEE_ResetTransientObject+0x90>
/home/avees/optee_os-nvidia/lib/libutee/tee_api_objects.c:252
    38f4:	d503201f 	nop
/home/avees/optee_os-nvidia/lib/libutee/tee_api_objects.c:264
    38f8:	f00000e0 	adrp	x0, 22000 <_DYNAMIC>
    38fc:	f9409800 	ldr	x0, [x0, #304]
    3900:	f94027e1 	ldr	x1, [sp, #72]
    3904:	f9400002 	ldr	x2, [x0]
    3908:	eb020021 	subs	x1, x1, x2
    390c:	d2800002 	mov	x2, #0x0                   	// #0
    3910:	54000040 	b.eq	3918 <TEE_ResetTransientObject+0xb0>  // b.none
    3914:	97fff30b 	bl	540 <__stack_chk_fail>
    3918:	a8c57bfd 	ldp	x29, x30, [sp], #80
    391c:	d65f03c0 	ret

0000000000003920 <TEE_PopulateTransientObject>:
TEE_PopulateTransientObject():
/home/avees/optee_os-nvidia/lib/libutee/tee_api_objects.c:269
    3920:	a9b87bfd 	stp	x29, x30, [sp, #-128]!
    3924:	910003fd 	mov	x29, sp
    3928:	a90153f3 	stp	x19, x20, [sp, #16]
    392c:	d10043ff 	sub	sp, sp, #0x10
    3930:	f9001fa0 	str	x0, [x29, #56]
    3934:	f9001ba1 	str	x1, [x29, #48]
    3938:	b9002fa2 	str	w2, [x29, #44]
    393c:	f00000e0 	adrp	x0, 22000 <_DYNAMIC>
    3940:	f9409800 	ldr	x0, [x0, #304]
    3944:	f9400001 	ldr	x1, [x0]
    3948:	f9003fa1 	str	x1, [x29, #120]
    394c:	d2800001 	mov	x1, #0x0                   	// #0
    3950:	910003e0 	mov	x0, sp
    3954:	aa0003f4 	mov	x20, x0
/home/avees/optee_os-nvidia/lib/libutee/tee_api_objects.c:272
    3958:	b9402fa2 	ldr	w2, [x29, #44]
    395c:	2a0203e0 	mov	w0, w2
    3960:	d1000400 	sub	x0, x0, #0x1
    3964:	f90027a0 	str	x0, [x29, #72]
    3968:	2a0203e0 	mov	w0, w2
    396c:	aa0003f2 	mov	x18, x0
    3970:	d2800013 	mov	x19, #0x0                   	// #0
    3974:	aa1203e0 	mov	x0, x18
    3978:	aa1303e1 	mov	x1, x19
    397c:	d37ffc03 	lsr	x3, x0, #63
    3980:	d37ff82b 	lsl	x11, x1, #1
    3984:	aa0b006b 	orr	x11, x3, x11
    3988:	d37ff80a 	lsl	x10, x0, #1
    398c:	aa0a03e0 	mov	x0, x10
    3990:	aa0b03e1 	mov	x1, x11
    3994:	aa1203e3 	mov	x3, x18
    3998:	ab030003 	adds	x3, x0, x3
    399c:	aa1303ea 	mov	x10, x19
    39a0:	9a0a0020 	adc	x0, x1, x10
    39a4:	aa0303ee 	mov	x14, x3
    39a8:	aa0003ef 	mov	x15, x0
    39ac:	d37afdc0 	lsr	x0, x14, #58
    39b0:	d37ae5e9 	lsl	x9, x15, #6
    39b4:	aa090009 	orr	x9, x0, x9
    39b8:	d37ae5c8 	lsl	x8, x14, #6
    39bc:	aa0803ee 	mov	x14, x8
    39c0:	aa0903ef 	mov	x15, x9
    39c4:	2a0203e1 	mov	w1, w2
    39c8:	aa0103e0 	mov	x0, x1
    39cc:	d37ff800 	lsl	x0, x0, #1
    39d0:	8b010000 	add	x0, x0, x1
    39d4:	d37df000 	lsl	x0, x0, #3
    39d8:	2a0203e0 	mov	w0, w2
    39dc:	aa0003f0 	mov	x16, x0
    39e0:	d2800011 	mov	x17, #0x0                   	// #0
    39e4:	aa1003e0 	mov	x0, x16
    39e8:	aa1103e1 	mov	x1, x17
    39ec:	d37ffc03 	lsr	x3, x0, #63
    39f0:	d37ff827 	lsl	x7, x1, #1
    39f4:	aa070067 	orr	x7, x3, x7
    39f8:	d37ff806 	lsl	x6, x0, #1
    39fc:	aa0603e0 	mov	x0, x6
    3a00:	aa0703e1 	mov	x1, x7
    3a04:	aa1003e3 	mov	x3, x16
    3a08:	ab030003 	adds	x3, x0, x3
    3a0c:	aa1103e6 	mov	x6, x17
    3a10:	9a060020 	adc	x0, x1, x6
    3a14:	aa0303ec 	mov	x12, x3
    3a18:	aa0003ed 	mov	x13, x0
    3a1c:	d37afd80 	lsr	x0, x12, #58
    3a20:	d37ae5a5 	lsl	x5, x13, #6
    3a24:	aa050005 	orr	x5, x0, x5
    3a28:	d37ae584 	lsl	x4, x12, #6
    3a2c:	aa0403ec 	mov	x12, x4
    3a30:	aa0503ed 	mov	x13, x5
    3a34:	2a0203e1 	mov	w1, w2
    3a38:	aa0103e0 	mov	x0, x1
    3a3c:	d37ff800 	lsl	x0, x0, #1
    3a40:	8b010000 	add	x0, x0, x1
    3a44:	d37df000 	lsl	x0, x0, #3
    3a48:	91003c00 	add	x0, x0, #0xf
    3a4c:	d344fc00 	lsr	x0, x0, #4
    3a50:	d37cec00 	lsl	x0, x0, #4
    3a54:	9270bc01 	and	x1, x0, #0xffffffffffff0000
    3a58:	cb2163e1 	sub	x1, sp, x1
    3a5c:	eb2163ff 	cmp	sp, x1
    3a60:	54000080 	b.eq	3a70 <TEE_PopulateTransientObject+0x150>  // b.none
    3a64:	d14043ff 	sub	sp, sp, #0x10, lsl #12
    3a68:	f90203ff 	str	xzr, [sp, #1024]
    3a6c:	17fffffc 	b	3a5c <TEE_PopulateTransientObject+0x13c>
    3a70:	92403c01 	and	x1, x0, #0xffff
    3a74:	cb2163ff 	sub	sp, sp, x1
    3a78:	f90003ff 	str	xzr, [sp]
    3a7c:	92403c00 	and	x0, x0, #0xffff
    3a80:	f110001f 	cmp	x0, #0x400
    3a84:	54000043 	b.cc	3a8c <TEE_PopulateTransientObject+0x16c>  // b.lo, b.ul, b.last
    3a88:	f90203ff 	str	xzr, [sp, #1024]
    3a8c:	910043e0 	add	x0, sp, #0x10
    3a90:	91001c00 	add	x0, x0, #0x7
    3a94:	d343fc00 	lsr	x0, x0, #3
    3a98:	d37df000 	lsl	x0, x0, #3
    3a9c:	f9002ba0 	str	x0, [x29, #80]
/home/avees/optee_os-nvidia/lib/libutee/tee_api_objects.c:274
    3aa0:	b9402fa0 	ldr	w0, [x29, #44]
    3aa4:	aa0003e1 	mov	x1, x0
    3aa8:	f9401ba0 	ldr	x0, [x29, #48]
    3aac:	94001b98 	bl	a90c <__utee_check_attr_in_annotation>
/home/avees/optee_os-nvidia/lib/libutee/tee_api_objects.c:276
    3ab0:	f9401fa0 	ldr	x0, [x29, #56]
    3ab4:	910163a1 	add	x1, x29, #0x58
    3ab8:	94001c03 	bl	aac4 <_utee_cryp_obj_get_info>
    3abc:	b90047a0 	str	w0, [x29, #68]
/home/avees/optee_os-nvidia/lib/libutee/tee_api_objects.c:277
    3ac0:	b94047a0 	ldr	w0, [x29, #68]
    3ac4:	7100001f 	cmp	w0, #0x0
    3ac8:	54000060 	b.eq	3ad4 <TEE_PopulateTransientObject+0x1b4>  // b.none
/home/avees/optee_os-nvidia/lib/libutee/tee_api_objects.c:278
    3acc:	b94047a0 	ldr	w0, [x29, #68]
    3ad0:	94001b11 	bl	a714 <TEE_Panic>
/home/avees/optee_os-nvidia/lib/libutee/tee_api_objects.c:281
    3ad4:	b94073a0 	ldr	w0, [x29, #112]
    3ad8:	12100000 	and	w0, w0, #0x10000
    3adc:	7100001f 	cmp	w0, #0x0
    3ae0:	54000060 	b.eq	3aec <TEE_PopulateTransientObject+0x1cc>  // b.none
/home/avees/optee_os-nvidia/lib/libutee/tee_api_objects.c:282
    3ae4:	52800000 	mov	w0, #0x0                   	// #0
    3ae8:	94001b0b 	bl	a714 <TEE_Panic>
/home/avees/optee_os-nvidia/lib/libutee/tee_api_objects.c:285
    3aec:	b94073a0 	ldr	w0, [x29, #112]
    3af0:	120f0000 	and	w0, w0, #0x20000
    3af4:	7100001f 	cmp	w0, #0x0
    3af8:	54000060 	b.eq	3b04 <TEE_PopulateTransientObject+0x1e4>  // b.none
/home/avees/optee_os-nvidia/lib/libutee/tee_api_objects.c:286
    3afc:	52800000 	mov	w0, #0x0                   	// #0
    3b00:	94001b05 	bl	a714 <TEE_Panic>
/home/avees/optee_os-nvidia/lib/libutee/tee_api_objects.c:288
    3b04:	b9402fa2 	ldr	w2, [x29, #44]
    3b08:	f9401ba1 	ldr	x1, [x29, #48]
    3b0c:	f9402ba0 	ldr	x0, [x29, #80]
    3b10:	97fffd35 	bl	2fe4 <__utee_from_attr>
/home/avees/optee_os-nvidia/lib/libutee/tee_api_objects.c:289
    3b14:	f9401fa0 	ldr	x0, [x29, #56]
    3b18:	b9402fa1 	ldr	w1, [x29, #44]
    3b1c:	aa0103e2 	mov	x2, x1
    3b20:	f9402ba1 	ldr	x1, [x29, #80]
    3b24:	94001bfa 	bl	ab0c <_utee_cryp_obj_populate>
    3b28:	b90047a0 	str	w0, [x29, #68]
/home/avees/optee_os-nvidia/lib/libutee/tee_api_objects.c:290
    3b2c:	b94047a0 	ldr	w0, [x29, #68]
    3b30:	7100001f 	cmp	w0, #0x0
    3b34:	540000e0 	b.eq	3b50 <TEE_PopulateTransientObject+0x230>  // b.none
/home/avees/optee_os-nvidia/lib/libutee/tee_api_objects.c:290 (discriminator 1)
    3b38:	b94047a1 	ldr	w1, [x29, #68]
    3b3c:	129fff20 	mov	w0, #0xffff0006            	// #-65530
    3b40:	6b00003f 	cmp	w1, w0
    3b44:	54000060 	b.eq	3b50 <TEE_PopulateTransientObject+0x230>  // b.none
/home/avees/optee_os-nvidia/lib/libutee/tee_api_objects.c:291
    3b48:	b94047a0 	ldr	w0, [x29, #68]
    3b4c:	94001af2 	bl	a714 <TEE_Panic>
/home/avees/optee_os-nvidia/lib/libutee/tee_api_objects.c:292
    3b50:	b94047a0 	ldr	w0, [x29, #68]
    3b54:	9100029f 	mov	sp, x20
    3b58:	2a0003e1 	mov	w1, w0
/home/avees/optee_os-nvidia/lib/libutee/tee_api_objects.c:293
    3b5c:	f00000e0 	adrp	x0, 22000 <_DYNAMIC>
    3b60:	f9409800 	ldr	x0, [x0, #304]
    3b64:	f9403fa2 	ldr	x2, [x29, #120]
    3b68:	f9400003 	ldr	x3, [x0]
    3b6c:	eb030042 	subs	x2, x2, x3
    3b70:	d2800003 	mov	x3, #0x0                   	// #0
    3b74:	54000040 	b.eq	3b7c <TEE_PopulateTransientObject+0x25c>  // b.none
    3b78:	97fff272 	bl	540 <__stack_chk_fail>
    3b7c:	2a0103e0 	mov	w0, w1
    3b80:	910003bf 	mov	sp, x29
    3b84:	a94153f3 	ldp	x19, x20, [sp, #16]
    3b88:	a8c87bfd 	ldp	x29, x30, [sp], #128
    3b8c:	d65f03c0 	ret

0000000000003b90 <TEE_InitRefAttribute>:
TEE_InitRefAttribute():
/home/avees/optee_os-nvidia/lib/libutee/tee_api_objects.c:297
    3b90:	a9bd7bfd 	stp	x29, x30, [sp, #-48]!
    3b94:	910003fd 	mov	x29, sp
    3b98:	f90017e0 	str	x0, [sp, #40]
    3b9c:	b90027e1 	str	w1, [sp, #36]
    3ba0:	f9000fe2 	str	x2, [sp, #24]
    3ba4:	b90023e3 	str	w3, [sp, #32]
/home/avees/optee_os-nvidia/lib/libutee/tee_api_objects.c:298
    3ba8:	d2800301 	mov	x1, #0x18                  	// #24
    3bac:	f94017e0 	ldr	x0, [sp, #40]
    3bb0:	94001b48 	bl	a8d0 <__utee_check_out_annotation>
/home/avees/optee_os-nvidia/lib/libutee/tee_api_objects.c:300
    3bb4:	b94027e0 	ldr	w0, [sp, #36]
    3bb8:	12030000 	and	w0, w0, #0x20000000
    3bbc:	7100001f 	cmp	w0, #0x0
    3bc0:	54000060 	b.eq	3bcc <TEE_InitRefAttribute+0x3c>  // b.none
/home/avees/optee_os-nvidia/lib/libutee/tee_api_objects.c:301
    3bc4:	52800000 	mov	w0, #0x0                   	// #0
    3bc8:	94001ad3 	bl	a714 <TEE_Panic>
/home/avees/optee_os-nvidia/lib/libutee/tee_api_objects.c:302
    3bcc:	f94017e0 	ldr	x0, [sp, #40]
    3bd0:	b94027e1 	ldr	w1, [sp, #36]
    3bd4:	b9000001 	str	w1, [x0]
/home/avees/optee_os-nvidia/lib/libutee/tee_api_objects.c:303
    3bd8:	f94017e0 	ldr	x0, [sp, #40]
    3bdc:	f9400fe1 	ldr	x1, [sp, #24]
    3be0:	f9000401 	str	x1, [x0, #8]
/home/avees/optee_os-nvidia/lib/libutee/tee_api_objects.c:304
    3be4:	f94017e0 	ldr	x0, [sp, #40]
    3be8:	b94023e1 	ldr	w1, [sp, #32]
    3bec:	b9001001 	str	w1, [x0, #16]
/home/avees/optee_os-nvidia/lib/libutee/tee_api_objects.c:305
    3bf0:	d503201f 	nop
    3bf4:	a8c37bfd 	ldp	x29, x30, [sp], #48
    3bf8:	d65f03c0 	ret

0000000000003bfc <TEE_InitValueAttribute>:
TEE_InitValueAttribute():
/home/avees/optee_os-nvidia/lib/libutee/tee_api_objects.c:309
    3bfc:	a9bd7bfd 	stp	x29, x30, [sp, #-48]!
    3c00:	910003fd 	mov	x29, sp
    3c04:	f90017e0 	str	x0, [sp, #40]
    3c08:	b90027e1 	str	w1, [sp, #36]
    3c0c:	b90023e2 	str	w2, [sp, #32]
    3c10:	b9001fe3 	str	w3, [sp, #28]
/home/avees/optee_os-nvidia/lib/libutee/tee_api_objects.c:310
    3c14:	d2800301 	mov	x1, #0x18                  	// #24
    3c18:	f94017e0 	ldr	x0, [sp, #40]
    3c1c:	94001b2d 	bl	a8d0 <__utee_check_out_annotation>
/home/avees/optee_os-nvidia/lib/libutee/tee_api_objects.c:312
    3c20:	b94027e0 	ldr	w0, [sp, #36]
    3c24:	12030000 	and	w0, w0, #0x20000000
    3c28:	7100001f 	cmp	w0, #0x0
    3c2c:	54000061 	b.ne	3c38 <TEE_InitValueAttribute+0x3c>  // b.any
/home/avees/optee_os-nvidia/lib/libutee/tee_api_objects.c:313
    3c30:	52800000 	mov	w0, #0x0                   	// #0
    3c34:	94001ab8 	bl	a714 <TEE_Panic>
/home/avees/optee_os-nvidia/lib/libutee/tee_api_objects.c:314
    3c38:	f94017e0 	ldr	x0, [sp, #40]
    3c3c:	b94027e1 	ldr	w1, [sp, #36]
    3c40:	b9000001 	str	w1, [x0]
/home/avees/optee_os-nvidia/lib/libutee/tee_api_objects.c:315
    3c44:	f94017e0 	ldr	x0, [sp, #40]
    3c48:	b94023e1 	ldr	w1, [sp, #32]
